---
triple:          'arm64-apple-darwin'
binary-path:     b_skip_list
relocations:
  - { offsetInCU: 0x655D, offset: 0x655D, size: 0x8, addend: 0x0, symName: __ZNSt3__124__put_character_sequenceB7v160006IcNS_11char_traitsIcEEEERNS_13basic_ostreamIT_T0_EES7_PKS4_m, symObjAddr: 0x46DC, symBinAddr: 0x100006BA0, symSize: 0x1EC }
  - { offsetInCU: 0x9D2C, offset: 0x9D2C, size: 0x8, addend: 0x0, symName: __ZNSt3__119__debug_db_insert_cB7v160006INS_6vectorIP5BlockIiENS_9allocatorIS4_EEEEEEvPT_, symObjAddr: 0x4B4, symBinAddr: 0x100002978, symSize: 0x10 }
  - { offsetInCU: 0x9D5D, offset: 0x9D5D, size: 0x8, addend: 0x0, symName: __ZNSt3__115__debug_db_swapB7v160006INS_6vectorIP5BlockIiENS_9allocatorIS4_EEEEEEvPT_S9_, symObjAddr: 0x718, symBinAddr: 0x100002BDC, symSize: 0x14 }
  - { offsetInCU: 0x9D9C, offset: 0x9D9C, size: 0x8, addend: 0x0, symName: __ZNSt3__125__debug_db_invalidate_allB7v160006INS_6vectorIP5BlockIiENS_9allocatorIS4_EEEEEEvPT_, symObjAddr: 0x920, symBinAddr: 0x100002DE4, symSize: 0x10 }
  - { offsetInCU: 0x9DCD, offset: 0x9DCD, size: 0x8, addend: 0x0, symName: __ZNSt3__112__to_addressB7v160006IP5BlockIiEEEPT_S5_, symObjAddr: 0x9E8, symBinAddr: 0x100002EAC, symSize: 0x14 }
  - { offsetInCU: 0x9E02, offset: 0x9E02, size: 0x8, addend: 0x0, symName: __ZNSt3__119__libcpp_deallocateB7v160006EPvmm, symObjAddr: 0xA98, symBinAddr: 0x100002F5C, symSize: 0x30 }
  - { offsetInCU: 0x9E4A, offset: 0x9E4A, size: 0x8, addend: 0x0, symName: __ZNSt3__127__do_deallocate_handle_sizeB7v160006IJEEEvPvmDpT_, symObjAddr: 0xAC8, symBinAddr: 0x100002F8C, symSize: 0x28 }
  - { offsetInCU: 0x9E88, offset: 0x9E88, size: 0x8, addend: 0x0, symName: __ZNSt3__124__libcpp_operator_deleteB7v160006IJPvEEEvDpT_, symObjAddr: 0xAF0, symBinAddr: 0x100002FB4, symSize: 0x24 }
  - { offsetInCU: 0x9EBD, offset: 0x9EBD, size: 0x8, addend: 0x0, symName: __ZNSt3__118__debug_db_erase_cB7v160006INS_6vectorIP5BlockIiENS_9allocatorIS4_EEEEEEvPT_, symObjAddr: 0xE08, symBinAddr: 0x1000032CC, symSize: 0x10 }
  - { offsetInCU: 0x9EEE, offset: 0x9EEE, size: 0x8, addend: 0x0, symName: __ZNSt3__119__debug_db_insert_cB7v160006INS_6vectorIP4NodeIiENS_9allocatorIS4_EEEEEEvPT_, symObjAddr: 0x1164, symBinAddr: 0x100003628, symSize: 0x10 }
  - { offsetInCU: 0x9F1F, offset: 0x9F1F, size: 0x8, addend: 0x0, symName: __ZNSt3__112__to_addressB7v160006IP4NodeIiEEEPT_S5_, symObjAddr: 0x149C, symBinAddr: 0x100003960, symSize: 0x14 }
  - { offsetInCU: 0x9F54, offset: 0x9F54, size: 0x8, addend: 0x0, symName: __ZNSt3__13maxB7v160006ImEERKT_S3_S3_, symObjAddr: 0x18C0, symBinAddr: 0x100003D84, symSize: 0x2C }
  - { offsetInCU: 0x9F97, offset: 0x9F97, size: 0x8, addend: 0x0, symName: __ZNSt3__13minB7v160006ImEERKT_S3_S3_, symObjAddr: 0x18EC, symBinAddr: 0x100003DB0, symSize: 0x2C }
  - { offsetInCU: 0xA1DB, offset: 0xA1DB, size: 0x8, addend: 0x0, symName: __ZNSt3__13minB7v160006ImNS_6__lessImmEEEERKT_S5_S5_T0_, symObjAddr: 0x1978, symBinAddr: 0x100003E3C, symSize: 0x54 }
  - { offsetInCU: 0xA270, offset: 0xA270, size: 0x8, addend: 0x0, symName: __ZNSt3__120__throw_length_errorB7v160006EPKc, symObjAddr: 0x1A54, symBinAddr: 0x100003F18, symSize: 0x64 }
  - { offsetInCU: 0xA298, offset: 0xA298, size: 0x8, addend: 0x0, symName: __ZNSt3__13maxB7v160006ImNS_6__lessImmEEEERKT_S5_S5_T0_, symObjAddr: 0x1B98, symBinAddr: 0x10000405C, symSize: 0x54 }
  - { offsetInCU: 0xA2F2, offset: 0xA2F2, size: 0x8, addend: 0x0, symName: __ZNSt3__119__allocate_at_leastB7v160006INS_9allocatorIP4NodeIiEEEEENS_19__allocation_resultINS_16allocator_traitsIT_E7pointerEEERS8_m, symObjAddr: 0x1CFC, symBinAddr: 0x1000041C0, symSize: 0x40 }
  - { offsetInCU: 0xA335, offset: 0xA335, size: 0x8, addend: 0x0, symName: __ZNSt3__117__libcpp_allocateB7v160006Emm, symObjAddr: 0x1E80, symBinAddr: 0x100004344, symSize: 0x28 }
  - { offsetInCU: 0xA372, offset: 0xA372, size: 0x8, addend: 0x0, symName: __ZNSt3__121__libcpp_operator_newB7v160006IJmEEEPvDpT_, symObjAddr: 0x1EA8, symBinAddr: 0x10000436C, symSize: 0x24 }
  - { offsetInCU: 0xA3AB, offset: 0xA3AB, size: 0x8, addend: 0x0, symName: __ZNSt3__142__uninitialized_allocator_move_if_noexceptB7v160006INS_9allocatorIP4NodeIiEEENS_16reverse_iteratorIPS4_EES8_S4_vEET1_RT_T0_SC_S9_, symObjAddr: 0x1FE8, symBinAddr: 0x1000044AC, symSize: 0x78 }
  - { offsetInCU: 0xA428, offset: 0xA428, size: 0x8, addend: 0x0, symName: __ZNSt3__14swapB7v160006IPP4NodeIiEEENS_9enable_ifIXaasr21is_move_constructibleIT_EE5valuesr18is_move_assignableIS6_EE5valueEvE4typeERS6_S9_, symObjAddr: 0x20AC, symBinAddr: 0x100004570, symSize: 0x3C }
  - { offsetInCU: 0xA479, offset: 0xA479, size: 0x8, addend: 0x0, symName: __ZNSt3__125__debug_db_invalidate_allB7v160006INS_6vectorIP4NodeIiENS_9allocatorIS4_EEEEEEvPT_, symObjAddr: 0x2194, symBinAddr: 0x100004658, symSize: 0x10 }
  - { offsetInCU: 0xA4AA, offset: 0xA4AA, size: 0x8, addend: 0x0, symName: __ZNSt3__14moveB7v160006INS_16reverse_iteratorIPP4NodeIiEEES6_EET0_T_S8_S7_, symObjAddr: 0x21EC, symBinAddr: 0x1000046B0, symSize: 0x78 }
  - { offsetInCU: 0xA504, offset: 0xA504, size: 0x8, addend: 0x0, symName: __ZNSt3__16__moveB7v160006INS_17_ClassicAlgPolicyENS_16reverse_iteratorIPP4NodeIiEEES7_S7_EENS_4pairIT0_T2_EES9_T1_SA_, symObjAddr: 0x2264, symBinAddr: 0x100004728, symSize: 0x64 }
  - { offsetInCU: 0xA570, offset: 0xA570, size: 0x8, addend: 0x0, symName: __ZNSt3__123__dispatch_copy_or_moveB7v160006INS_17_ClassicAlgPolicyENS_11__move_loopIS1_EENS_14__move_trivialENS_16reverse_iteratorIPP4NodeIiEEESA_SA_EENS_4pairIT2_T4_EESC_T3_SD_, symObjAddr: 0x22C8, symBinAddr: 0x10000478C, symSize: 0x64 }
  - { offsetInCU: 0xA5EE, offset: 0xA5EE, size: 0x8, addend: 0x0, symName: __ZNSt3__121__unwrap_and_dispatchB7v160006INS_10__overloadINS_11__move_loopINS_17_ClassicAlgPolicyEEENS_14__move_trivialEEENS_16reverse_iteratorIPP4NodeIiEEESC_SC_Li0EEENS_4pairIT0_T2_EESE_T1_SF_, symObjAddr: 0x232C, symBinAddr: 0x1000047F0, symSize: 0x12C }
  - { offsetInCU: 0xA67E, offset: 0xA67E, size: 0x8, addend: 0x0, symName: __ZNSt3__114__unwrap_rangeB7v160006INS_16reverse_iteratorIPP4NodeIiEEES6_EENS_4pairIT0_S8_EET_SA_, symObjAddr: 0x2458, symBinAddr: 0x10000491C, symSize: 0x84 }
  - { offsetInCU: 0xA838, offset: 0xA838, size: 0x8, addend: 0x0, symName: __ZNSt3__113__unwrap_iterB7v160006INS_16reverse_iteratorIPP4NodeIiEEENS_18__unwrap_iter_implIS6_Lb0EEELi0EEEDTclsrT0_8__unwrapclsr3stdE7declvalIT_EEEESA_, symObjAddr: 0x257C, symBinAddr: 0x100004A40, symSize: 0x44 }
  - { offsetInCU: 0xA87C, offset: 0xA87C, size: 0x8, addend: 0x0, symName: __ZNSt3__19make_pairB7v160006INS_16reverse_iteratorIPP4NodeIiEEES6_EENS_4pairINS_18__unwrap_ref_decayIT_E4typeENS8_IT0_E4typeEEEOS9_OSC_, symObjAddr: 0x25C0, symBinAddr: 0x100004A84, symSize: 0x38 }
  - { offsetInCU: 0xA8CB, offset: 0xA8CB, size: 0x8, addend: 0x0, symName: __ZNSt3__114__rewrap_rangeB7v160006INS_16reverse_iteratorIPP4NodeIiEEES6_EET_S7_T0_, symObjAddr: 0x25F8, symBinAddr: 0x100004ABC, symSize: 0x5C }
  - { offsetInCU: 0xA917, offset: 0xA917, size: 0x8, addend: 0x0, symName: __ZNSt3__113__rewrap_iterB7v160006INS_16reverse_iteratorIPP4NodeIiEEES6_NS_18__unwrap_iter_implIS6_Lb0EEEEET_S9_T0_, symObjAddr: 0x2654, symBinAddr: 0x100004B18, symSize: 0x74 }
  - { offsetInCU: 0xA96C, offset: 0xA96C, size: 0x8, addend: 0x0, symName: __ZNSt3__1neB7v160006IPP4NodeIiES4_EEbRKNS_16reverse_iteratorIT_EERKNS5_IT0_EE, symObjAddr: 0x26C8, symBinAddr: 0x100004B8C, symSize: 0x48 }
  - { offsetInCU: 0xAA9D, offset: 0xAA9D, size: 0x8, addend: 0x0, symName: __ZNSt3__118__debug_db_erase_cB7v160006INS_6vectorIP4NodeIiENS_9allocatorIS4_EEEEEEvPT_, symObjAddr: 0x2C40, symBinAddr: 0x100005104, symSize: 0x10 }
  - { offsetInCU: 0xAACE, offset: 0xAACE, size: 0x8, addend: 0x0, symName: __ZNSt3__119__allocate_at_leastB7v160006INS_9allocatorIP5BlockIiEEEEENS_19__allocation_resultINS_16allocator_traitsIT_E7pointerEEERS8_m, symObjAddr: 0x33F4, symBinAddr: 0x1000058B8, symSize: 0x40 }
  - { offsetInCU: 0xAB11, offset: 0xAB11, size: 0x8, addend: 0x0, symName: __ZNSt3__142__uninitialized_allocator_move_if_noexceptB7v160006INS_9allocatorIP5BlockIiEEENS_16reverse_iteratorIPS4_EES8_S4_vEET1_RT_T0_SC_S9_, symObjAddr: 0x35A8, symBinAddr: 0x100005A6C, symSize: 0x78 }
  - { offsetInCU: 0xAB8E, offset: 0xAB8E, size: 0x8, addend: 0x0, symName: __ZNSt3__14swapB7v160006IPP5BlockIiEEENS_9enable_ifIXaasr21is_move_constructibleIT_EE5valuesr18is_move_assignableIS6_EE5valueEvE4typeERS6_S9_, symObjAddr: 0x366C, symBinAddr: 0x100005B30, symSize: 0x3C }
  - { offsetInCU: 0xABDF, offset: 0xABDF, size: 0x8, addend: 0x0, symName: __ZNSt3__14moveB7v160006INS_16reverse_iteratorIPP5BlockIiEEES6_EET0_T_S8_S7_, symObjAddr: 0x3754, symBinAddr: 0x100005C18, symSize: 0x78 }
  - { offsetInCU: 0xAC39, offset: 0xAC39, size: 0x8, addend: 0x0, symName: __ZNSt3__16__moveB7v160006INS_17_ClassicAlgPolicyENS_16reverse_iteratorIPP5BlockIiEEES7_S7_EENS_4pairIT0_T2_EES9_T1_SA_, symObjAddr: 0x37CC, symBinAddr: 0x100005C90, symSize: 0x64 }
  - { offsetInCU: 0xACA5, offset: 0xACA5, size: 0x8, addend: 0x0, symName: __ZNSt3__123__dispatch_copy_or_moveB7v160006INS_17_ClassicAlgPolicyENS_11__move_loopIS1_EENS_14__move_trivialENS_16reverse_iteratorIPP5BlockIiEEESA_SA_EENS_4pairIT2_T4_EESC_T3_SD_, symObjAddr: 0x3830, symBinAddr: 0x100005CF4, symSize: 0x64 }
  - { offsetInCU: 0xAD23, offset: 0xAD23, size: 0x8, addend: 0x0, symName: __ZNSt3__121__unwrap_and_dispatchB7v160006INS_10__overloadINS_11__move_loopINS_17_ClassicAlgPolicyEEENS_14__move_trivialEEENS_16reverse_iteratorIPP5BlockIiEEESC_SC_Li0EEENS_4pairIT0_T2_EESE_T1_SF_, symObjAddr: 0x3894, symBinAddr: 0x100005D58, symSize: 0x12C }
  - { offsetInCU: 0xADB3, offset: 0xADB3, size: 0x8, addend: 0x0, symName: __ZNSt3__114__unwrap_rangeB7v160006INS_16reverse_iteratorIPP5BlockIiEEES6_EENS_4pairIT0_S8_EET_SA_, symObjAddr: 0x39C0, symBinAddr: 0x100005E84, symSize: 0x84 }
  - { offsetInCU: 0xAED3, offset: 0xAED3, size: 0x8, addend: 0x0, symName: __ZNSt3__113__unwrap_iterB7v160006INS_16reverse_iteratorIPP5BlockIiEEENS_18__unwrap_iter_implIS6_Lb0EEELi0EEEDTclsrT0_8__unwrapclsr3stdE7declvalIT_EEEESA_, symObjAddr: 0x3AE4, symBinAddr: 0x100005FA8, symSize: 0x44 }
  - { offsetInCU: 0xAF17, offset: 0xAF17, size: 0x8, addend: 0x0, symName: __ZNSt3__19make_pairB7v160006INS_16reverse_iteratorIPP5BlockIiEEES6_EENS_4pairINS_18__unwrap_ref_decayIT_E4typeENS8_IT0_E4typeEEEOS9_OSC_, symObjAddr: 0x3B28, symBinAddr: 0x100005FEC, symSize: 0x38 }
  - { offsetInCU: 0xAF66, offset: 0xAF66, size: 0x8, addend: 0x0, symName: __ZNSt3__114__rewrap_rangeB7v160006INS_16reverse_iteratorIPP5BlockIiEEES6_EET_S7_T0_, symObjAddr: 0x3B60, symBinAddr: 0x100006024, symSize: 0x5C }
  - { offsetInCU: 0xAFB2, offset: 0xAFB2, size: 0x8, addend: 0x0, symName: __ZNSt3__113__rewrap_iterB7v160006INS_16reverse_iteratorIPP5BlockIiEEES6_NS_18__unwrap_iter_implIS6_Lb0EEEEET_S9_T0_, symObjAddr: 0x3BBC, symBinAddr: 0x100006080, symSize: 0x74 }
  - { offsetInCU: 0xB007, offset: 0xB007, size: 0x8, addend: 0x0, symName: __ZNSt3__1neB7v160006IPP5BlockIiES4_EEbRKNS_16reverse_iteratorIT_EERKNS5_IT0_EE, symObjAddr: 0x3C30, symBinAddr: 0x1000060F4, symSize: 0x48 }
  - { offsetInCU: 0xB0BF, offset: 0xB0BF, size: 0x8, addend: 0x0, symName: __ZNSt3__1neB7v160006INS_11__wrap_iterIPP5BlockIiEEES6_EEbRKNS_16reverse_iteratorIT_EERKNS7_IT0_EE, symObjAddr: 0x4030, symBinAddr: 0x1000064F4, symSize: 0x54 }
  - { offsetInCU: 0xB10B, offset: 0xB10B, size: 0x8, addend: 0x0, symName: __ZNSt3__14endlB7v160006IcNS_11char_traitsIcEEEERNS_13basic_ostreamIT_T0_EES7_, symObjAddr: 0x41EC, symBinAddr: 0x1000066B0, symSize: 0x58 }
  - { offsetInCU: 0xB14B, offset: 0xB14B, size: 0x8, addend: 0x0, symName: __ZNSt3__1neB7v160006IPP5BlockIiEEEbRKNS_11__wrap_iterIT_EES9_, symObjAddr: 0x4394, symBinAddr: 0x100006858, symSize: 0x34 }
  - { offsetInCU: 0xB18E, offset: 0xB18E, size: 0x8, addend: 0x0, symName: __ZNSt3__1eqB7v160006IPP5BlockIiEEEbRKNS_11__wrap_iterIT_EES9_, symObjAddr: 0x43E8, symBinAddr: 0x1000068AC, symSize: 0x48 }
  - { offsetInCU: 0xB1D1, offset: 0xB1D1, size: 0x8, addend: 0x0, symName: __ZNSt3__1neB7v160006IPP4NodeIiEEEbRKNS_11__wrap_iterIT_EES9_, symObjAddr: 0x4510, symBinAddr: 0x1000069D4, symSize: 0x34 }
  - { offsetInCU: 0xB214, offset: 0xB214, size: 0x8, addend: 0x0, symName: __ZNSt3__1lsB7v160006INS_11char_traitsIcEEEERNS_13basic_ostreamIcT_EES6_PKc, symObjAddr: 0x455C, symBinAddr: 0x100006A20, symSize: 0x48 }
  - { offsetInCU: 0xB25A, offset: 0xB25A, size: 0x8, addend: 0x0, symName: __ZNSt3__1eqB7v160006IPP4NodeIiEEEbRKNS_11__wrap_iterIT_EES9_, symObjAddr: 0x467C, symBinAddr: 0x100006B40, symSize: 0x48 }
  - { offsetInCU: 0xB29D, offset: 0xB29D, size: 0x8, addend: 0x0, symName: __ZNSt3__116__pad_and_outputB7v160006IcNS_11char_traitsIcEEEENS_19ostreambuf_iteratorIT_T0_EES6_PKS4_S8_S8_RNS_8ios_baseES4_, symObjAddr: 0x4918, symBinAddr: 0x100006DDC, symSize: 0x240 }
  - { offsetInCU: 0xB36C, offset: 0xB36C, size: 0x8, addend: 0x0, symName: __ZNSt3__119__debug_db_insert_cB7v160006INS_12basic_stringIcNS_11char_traitsIcEENS_9allocatorIcEEEEEEvPT_, symObjAddr: 0x4DCC, symBinAddr: 0x100007290, symSize: 0x10 }
  - { offsetInCU: 0xB39D, offset: 0xB39D, size: 0x8, addend: 0x0, symName: __ZNSt3__112__to_addressB7v160006IKcEEPT_S3_, symObjAddr: 0x4E98, symBinAddr: 0x10000735C, symSize: 0x14 }
  - { offsetInCU: 0xB405, offset: 0xB405, size: 0x8, addend: 0x0, symName: __ZNSt3__19use_facetB7v160006INS_5ctypeIcEEEERKT_RKNS_6localeE, symObjAddr: 0x5118, symBinAddr: 0x1000075DC, symSize: 0x2C }
  - { offsetInCU: 0xB8D4, offset: 0xB8D4, size: 0x8, addend: 0x0, symName: __ZNSt3__118__constexpr_strlenB7v160006EPKc, symObjAddr: 0x51B0, symBinAddr: 0x100007674, symSize: 0x24 }
  - { offsetInCU: 0xBD81, offset: 0xBD81, size: 0x8, addend: 0x0, symName: __ZSt28__throw_bad_array_new_lengthB7v160006v, symObjAddr: 0x1E4C, symBinAddr: 0x100004310, symSize: 0x34 }
  - { offsetInCU: 0xC5E1, offset: 0xC5E1, size: 0x8, addend: 0x0, symName: __ZNSt3__16vectorIP4NodeIiENS_9allocatorIS3_EEE26__swap_out_circular_bufferERNS_14__split_bufferIS3_RS5_EE, symObjAddr: 0x16C0, symBinAddr: 0x100003B84, symSize: 0x118 }
  - { offsetInCU: 0xC63B, offset: 0xC63B, size: 0x8, addend: 0x0, symName: __ZNSt3__16vectorIP5BlockIiENS_9allocatorIS3_EEE26__swap_out_circular_bufferERNS_14__split_bufferIS3_RS5_EE, symObjAddr: 0x308C, symBinAddr: 0x100005550, symSize: 0x118 }
  - { offsetInCU: 0xE8EE, offset: 0xE8EE, size: 0x8, addend: 0x0, symName: _main, symObjAddr: 0x0, symBinAddr: 0x1000024C4, symSize: 0x64 }
  - { offsetInCU: 0xEC41, offset: 0xEC41, size: 0x8, addend: 0x0, symName: __ZN9BSkipListIiEC1Ev, symObjAddr: 0x64, symBinAddr: 0x100002528, symSize: 0x2C }
  - { offsetInCU: 0xEC6C, offset: 0xEC6C, size: 0x8, addend: 0x0, symName: __ZN9BSkipListIiE5printEv, symObjAddr: 0x90, symBinAddr: 0x100002554, symSize: 0xC0 }
  - { offsetInCU: 0xECCD, offset: 0xECCD, size: 0x8, addend: 0x0, symName: __ZN9BSkipListIiED1Ev, symObjAddr: 0x150, symBinAddr: 0x100002614, symSize: 0x2C }
  - { offsetInCU: 0xECF8, offset: 0xECF8, size: 0x8, addend: 0x0, symName: __ZN9BSkipListIiEC2Ev, symObjAddr: 0x17C, symBinAddr: 0x100002640, symSize: 0x120 }
  - { offsetInCU: 0xED37, offset: 0xED37, size: 0x8, addend: 0x0, symName: __ZNSt3__16vectorIP5BlockIiENS_9allocatorIS3_EEEC1B7v160006Ev, symObjAddr: 0x29C, symBinAddr: 0x100002760, symSize: 0x2C }
  - { offsetInCU: 0xED5F, offset: 0xED5F, size: 0x8, addend: 0x0, symName: __ZNSt3__16vectorIP5BlockIiENS_9allocatorIS3_EEEaSB7v160006EOS6_, symObjAddr: 0x2C8, symBinAddr: 0x10000278C, symSize: 0x34 }
  - { offsetInCU: 0xED95, offset: 0xED95, size: 0x8, addend: 0x0, symName: __ZNSt3__16vectorIP5BlockIiENS_9allocatorIS3_EEED1B7v160006Ev, symObjAddr: 0x2FC, symBinAddr: 0x1000027C0, symSize: 0x2C }
  - { offsetInCU: 0xEDBE, offset: 0xEDBE, size: 0x8, addend: 0x0, symName: __ZN4NodeIiEC1EiiP5BlockIiE, symObjAddr: 0x328, symBinAddr: 0x1000027EC, symSize: 0x44 }
  - { offsetInCU: 0xEE13, offset: 0xEE13, size: 0x8, addend: 0x0, symName: __ZN5BlockIiEC1EP4NodeIiEPS0_, symObjAddr: 0x36C, symBinAddr: 0x100002830, symSize: 0x3C }
  - { offsetInCU: 0xEE59, offset: 0xEE59, size: 0x8, addend: 0x0, symName: __ZNSt3__16vectorIP5BlockIiENS_9allocatorIS3_EEE9push_backB7v160006ERKS3_, symObjAddr: 0x3A8, symBinAddr: 0x10000286C, symSize: 0x6C }
  - { offsetInCU: 0xEE8F, offset: 0xEE8F, size: 0x8, addend: 0x0, symName: __ZNSt3__16vectorIP5BlockIiENS_9allocatorIS3_EEEC2B7v160006Ev, symObjAddr: 0x414, symBinAddr: 0x1000028D8, symSize: 0x58 }
  - { offsetInCU: 0xEEC2, offset: 0xEEC2, size: 0x8, addend: 0x0, symName: __ZNSt3__117__compressed_pairIPP5BlockIiENS_9allocatorIS3_EEEC1B7v160006IDnNS_18__default_init_tagEEEOT_OT0_, symObjAddr: 0x46C, symBinAddr: 0x100002930, symSize: 0x3C }
  - { offsetInCU: 0xEF19, offset: 0xEF19, size: 0x8, addend: 0x0, symName: __ZNSt3__117__compressed_pairIPP5BlockIiENS_9allocatorIS3_EEEC2B7v160006IDnNS_18__default_init_tagEEEOT_OT0_, symObjAddr: 0x4C4, symBinAddr: 0x100002988, symSize: 0x40 }
  - { offsetInCU: 0xEF70, offset: 0xEF70, size: 0x8, addend: 0x0, symName: __ZNSt3__122__compressed_pair_elemIPP5BlockIiELi0ELb0EEC2B7v160006IDnvEEOT_, symObjAddr: 0x504, symBinAddr: 0x1000029C8, symSize: 0x1C }
  - { offsetInCU: 0xEFB1, offset: 0xEFB1, size: 0x8, addend: 0x0, symName: __ZNSt3__122__compressed_pair_elemINS_9allocatorIP5BlockIiEEELi1ELb1EEC2B7v160006ENS_18__default_init_tagE, symObjAddr: 0x520, symBinAddr: 0x1000029E4, symSize: 0x2C }
  - { offsetInCU: 0xEFE5, offset: 0xEFE5, size: 0x8, addend: 0x0, symName: __ZNSt3__19allocatorIP5BlockIiEEC2B7v160006Ev, symObjAddr: 0x54C, symBinAddr: 0x100002A10, symSize: 0x2C }
  - { offsetInCU: 0xF00E, offset: 0xF00E, size: 0x8, addend: 0x0, symName: __ZNSt3__116__non_trivial_ifILb1ENS_9allocatorIP5BlockIiEEEEC2B7v160006Ev, symObjAddr: 0x578, symBinAddr: 0x100002A3C, symSize: 0x14 }
  - { offsetInCU: 0xF036, offset: 0xF036, size: 0x8, addend: 0x0, symName: __ZNSt3__16vectorIP5BlockIiENS_9allocatorIS3_EEE13__move_assignERS6_NS_17integral_constantIbLb1EEE, symObjAddr: 0x58C, symBinAddr: 0x100002A50, symSize: 0xAC }
  - { offsetInCU: 0xF076, offset: 0xF076, size: 0x8, addend: 0x0, symName: __ZNSt3__16vectorIP5BlockIiENS_9allocatorIS3_EEE13__vdeallocateEv, symObjAddr: 0x638, symBinAddr: 0x100002AFC, symSize: 0x8C }
  - { offsetInCU: 0xF09D, offset: 0xF09D, size: 0x8, addend: 0x0, symName: __ZNSt3__16vectorIP5BlockIiENS_9allocatorIS3_EEE19__move_assign_allocB7v160006ERS6_, symObjAddr: 0x6C4, symBinAddr: 0x100002B88, symSize: 0x2C }
  - { offsetInCU: 0xF0D1, offset: 0xF0D1, size: 0x8, addend: 0x0, symName: __ZNSt3__16vectorIP5BlockIiENS_9allocatorIS3_EEE9__end_capB7v160006Ev, symObjAddr: 0x6F0, symBinAddr: 0x100002BB4, symSize: 0x28 }
  - { offsetInCU: 0xF0F6, offset: 0xF0F6, size: 0x8, addend: 0x0, symName: __ZNSt3__16vectorIP5BlockIiENS_9allocatorIS3_EEE5clearB7v160006Ev, symObjAddr: 0x72C, symBinAddr: 0x100002BF0, symSize: 0x54 }
  - { offsetInCU: 0xF12A, offset: 0xF12A, size: 0x8, addend: 0x0, symName: __ZNSt3__116allocator_traitsINS_9allocatorIP5BlockIiEEEE10deallocateB7v160006ERS5_PS4_m, symObjAddr: 0x780, symBinAddr: 0x100002C44, symSize: 0x34 }
  - { offsetInCU: 0xF16C, offset: 0xF16C, size: 0x8, addend: 0x0, symName: __ZNSt3__16vectorIP5BlockIiENS_9allocatorIS3_EEE7__allocB7v160006Ev, symObjAddr: 0x7B4, symBinAddr: 0x100002C78, symSize: 0x28 }
  - { offsetInCU: 0xF191, offset: 0xF191, size: 0x8, addend: 0x0, symName: __ZNKSt3__16vectorIP5BlockIiENS_9allocatorIS3_EEE8capacityB7v160006Ev, symObjAddr: 0x7DC, symBinAddr: 0x100002CA0, symSize: 0x40 }
  - { offsetInCU: 0xF1B6, offset: 0xF1B6, size: 0x8, addend: 0x0, symName: __ZNKSt3__16vectorIP5BlockIiENS_9allocatorIS3_EEE4sizeB7v160006Ev, symObjAddr: 0x81C, symBinAddr: 0x100002CE0, symSize: 0x28 }
  - { offsetInCU: 0xF1DB, offset: 0xF1DB, size: 0x8, addend: 0x0, symName: __ZNSt3__16vectorIP5BlockIiENS_9allocatorIS3_EEE7__clearB7v160006Ev, symObjAddr: 0x844, symBinAddr: 0x100002D08, symSize: 0x28 }
  - { offsetInCU: 0xF200, offset: 0xF200, size: 0x8, addend: 0x0, symName: __ZNKSt3__16vectorIP5BlockIiENS_9allocatorIS3_EEE17__annotate_shrinkB7v160006Em, symObjAddr: 0x86C, symBinAddr: 0x100002D30, symSize: 0xB4 }
  - { offsetInCU: 0xF234, offset: 0xF234, size: 0x8, addend: 0x0, symName: __ZNSt3__16vectorIP5BlockIiENS_9allocatorIS3_EEE22__base_destruct_at_endB7v160006EPS3_, symObjAddr: 0x930, symBinAddr: 0x100002DF4, symSize: 0x8C }
  - { offsetInCU: 0xF277, offset: 0xF277, size: 0x8, addend: 0x0, symName: __ZNSt3__116allocator_traitsINS_9allocatorIP5BlockIiEEEE7destroyB7v160006IS4_vEEvRS5_PT_, symObjAddr: 0x9BC, symBinAddr: 0x100002E80, symSize: 0x2C }
  - { offsetInCU: 0xF2B4, offset: 0xF2B4, size: 0x8, addend: 0x0, symName: __ZNSt3__19allocatorIP5BlockIiEE7destroyB7v160006EPS3_, symObjAddr: 0x9FC, symBinAddr: 0x100002EC0, symSize: 0x14 }
  - { offsetInCU: 0xF2E7, offset: 0xF2E7, size: 0x8, addend: 0x0, symName: __ZNKSt3__16vectorIP5BlockIiENS_9allocatorIS3_EEE31__annotate_contiguous_containerB7v160006EPKvS8_S8_S8_, symObjAddr: 0xA10, symBinAddr: 0x100002ED4, symSize: 0x20 }
  - { offsetInCU: 0xF338, offset: 0xF338, size: 0x8, addend: 0x0, symName: __ZNKSt3__16vectorIP5BlockIiENS_9allocatorIS3_EEE4dataB7v160006Ev, symObjAddr: 0xA30, symBinAddr: 0x100002EF4, symSize: 0x28 }
  - { offsetInCU: 0xF35D, offset: 0xF35D, size: 0x8, addend: 0x0, symName: __ZNSt3__19allocatorIP5BlockIiEE10deallocateB7v160006EPS3_m, symObjAddr: 0xA58, symBinAddr: 0x100002F1C, symSize: 0x40 }
  - { offsetInCU: 0xF39E, offset: 0xF39E, size: 0x8, addend: 0x0, symName: __ZNSt3__117__compressed_pairIPP5BlockIiENS_9allocatorIS3_EEE6secondB7v160006Ev, symObjAddr: 0xB14, symBinAddr: 0x100002FD8, symSize: 0x24 }
  - { offsetInCU: 0xF3C3, offset: 0xF3C3, size: 0x8, addend: 0x0, symName: __ZNSt3__122__compressed_pair_elemINS_9allocatorIP5BlockIiEEELi1ELb1EE5__getB7v160006Ev, symObjAddr: 0xB38, symBinAddr: 0x100002FFC, symSize: 0x14 }
  - { offsetInCU: 0xF3E8, offset: 0xF3E8, size: 0x8, addend: 0x0, symName: __ZNKSt3__16vectorIP5BlockIiENS_9allocatorIS3_EEE9__end_capB7v160006Ev, symObjAddr: 0xB4C, symBinAddr: 0x100003010, symSize: 0x28 }
  - { offsetInCU: 0xF40D, offset: 0xF40D, size: 0x8, addend: 0x0, symName: __ZNKSt3__117__compressed_pairIPP5BlockIiENS_9allocatorIS3_EEE5firstB7v160006Ev, symObjAddr: 0xB74, symBinAddr: 0x100003038, symSize: 0x24 }
  - { offsetInCU: 0xF432, offset: 0xF432, size: 0x8, addend: 0x0, symName: __ZNKSt3__122__compressed_pair_elemIPP5BlockIiELi0ELb0EE5__getB7v160006Ev, symObjAddr: 0xB98, symBinAddr: 0x10000305C, symSize: 0x14 }
  - { offsetInCU: 0xF457, offset: 0xF457, size: 0x8, addend: 0x0, symName: __ZNSt3__16vectorIP5BlockIiENS_9allocatorIS3_EEE19__move_assign_allocB7v160006ERS6_NS_17integral_constantIbLb1EEE, symObjAddr: 0xBAC, symBinAddr: 0x100003070, symSize: 0x38 }
  - { offsetInCU: 0xF496, offset: 0xF496, size: 0x8, addend: 0x0, symName: __ZNSt3__117__compressed_pairIPP5BlockIiENS_9allocatorIS3_EEE5firstB7v160006Ev, symObjAddr: 0xBE4, symBinAddr: 0x1000030A8, symSize: 0x24 }
  - { offsetInCU: 0xF4BB, offset: 0xF4BB, size: 0x8, addend: 0x0, symName: __ZNSt3__122__compressed_pair_elemIPP5BlockIiELi0ELb0EE5__getB7v160006Ev, symObjAddr: 0xC08, symBinAddr: 0x1000030CC, symSize: 0x14 }
  - { offsetInCU: 0xF4E0, offset: 0xF4E0, size: 0x8, addend: 0x0, symName: __ZNSt3__16vectorIP5BlockIiENS_9allocatorIS3_EEED2B7v160006Ev, symObjAddr: 0xC1C, symBinAddr: 0x1000030E0, symSize: 0x44 }
  - { offsetInCU: 0xF509, offset: 0xF509, size: 0x8, addend: 0x0, symName: __ZNSt3__16vectorIP5BlockIiENS_9allocatorIS3_EEE16__destroy_vectorC1ERS6_, symObjAddr: 0xC60, symBinAddr: 0x100003124, symSize: 0x34 }
  - { offsetInCU: 0xF541, offset: 0xF541, size: 0x8, addend: 0x0, symName: __ZNSt3__16vectorIP5BlockIiENS_9allocatorIS3_EEE16__destroy_vectorclB7v160006Ev, symObjAddr: 0xC94, symBinAddr: 0x100003158, symSize: 0x9C }
  - { offsetInCU: 0xF566, offset: 0xF566, size: 0x8, addend: 0x0, symName: __ZNSt3__16vectorIP5BlockIiENS_9allocatorIS3_EEE16__destroy_vectorC2ERS6_, symObjAddr: 0xD30, symBinAddr: 0x1000031F4, symSize: 0x20 }
  - { offsetInCU: 0xF59E, offset: 0xF59E, size: 0x8, addend: 0x0, symName: __ZNKSt3__16vectorIP5BlockIiENS_9allocatorIS3_EEE17__annotate_deleteB7v160006Ev, symObjAddr: 0xD50, symBinAddr: 0x100003214, symSize: 0xB8 }
  - { offsetInCU: 0xF5C3, offset: 0xF5C3, size: 0x8, addend: 0x0, symName: __ZN4NodeIiEC2EiiP5BlockIiE, symObjAddr: 0xE18, symBinAddr: 0x1000032DC, symSize: 0x8C }
  - { offsetInCU: 0xF618, offset: 0xF618, size: 0x8, addend: 0x0, symName: __ZN2KVIiEC1Ev, symObjAddr: 0xEA4, symBinAddr: 0x100003368, symSize: 0x2C }
  - { offsetInCU: 0xF643, offset: 0xF643, size: 0x8, addend: 0x0, symName: __ZN2KVIiEC1Eii, symObjAddr: 0xED0, symBinAddr: 0x100003394, symSize: 0x3C }
  - { offsetInCU: 0xF689, offset: 0xF689, size: 0x8, addend: 0x0, symName: __ZN2KVIiED1Ev, symObjAddr: 0xF0C, symBinAddr: 0x1000033D0, symSize: 0x2C }
  - { offsetInCU: 0xF6B4, offset: 0xF6B4, size: 0x8, addend: 0x0, symName: __ZN2KVIiEC2Ev, symObjAddr: 0xF38, symBinAddr: 0x1000033FC, symSize: 0x1C }
  - { offsetInCU: 0xF6DF, offset: 0xF6DF, size: 0x8, addend: 0x0, symName: __ZN2KVIiEC2Eii, symObjAddr: 0xF54, symBinAddr: 0x100003418, symSize: 0x2C }
  - { offsetInCU: 0xF725, offset: 0xF725, size: 0x8, addend: 0x0, symName: __ZN2KVIiED2Ev, symObjAddr: 0xF80, symBinAddr: 0x100003444, symSize: 0x14 }
  - { offsetInCU: 0xF750, offset: 0xF750, size: 0x8, addend: 0x0, symName: __ZN5BlockIiEC2EP4NodeIiEPS0_, symObjAddr: 0xF94, symBinAddr: 0x100003458, symSize: 0x78 }
  - { offsetInCU: 0xF797, offset: 0xF797, size: 0x8, addend: 0x0, symName: __ZNSt3__16vectorIP4NodeIiENS_9allocatorIS3_EEEC1B7v160006Ev, symObjAddr: 0x100C, symBinAddr: 0x1000034D0, symSize: 0x2C }
  - { offsetInCU: 0xF7BF, offset: 0xF7BF, size: 0x8, addend: 0x0, symName: __ZNSt3__16vectorIP4NodeIiENS_9allocatorIS3_EEE9push_backB7v160006ERKS3_, symObjAddr: 0x1038, symBinAddr: 0x1000034FC, symSize: 0x6C }
  - { offsetInCU: 0xF7F5, offset: 0xF7F5, size: 0x8, addend: 0x0, symName: __ZNSt3__16vectorIP4NodeIiENS_9allocatorIS3_EEED1B7v160006Ev, symObjAddr: 0x10A4, symBinAddr: 0x100003568, symSize: 0x2C }
  - { offsetInCU: 0xF81E, offset: 0xF81E, size: 0x8, addend: 0x0, symName: __ZNSt3__16vectorIP4NodeIiENS_9allocatorIS3_EEEC2B7v160006Ev, symObjAddr: 0x10D0, symBinAddr: 0x100003594, symSize: 0x58 }
  - { offsetInCU: 0xF847, offset: 0xF847, size: 0x8, addend: 0x0, symName: __ZNSt3__117__compressed_pairIPP4NodeIiENS_9allocatorIS3_EEEC1B7v160006IDnNS_18__default_init_tagEEEOT_OT0_, symObjAddr: 0x1128, symBinAddr: 0x1000035EC, symSize: 0x3C }
  - { offsetInCU: 0xF89E, offset: 0xF89E, size: 0x8, addend: 0x0, symName: __ZNSt3__117__compressed_pairIPP4NodeIiENS_9allocatorIS3_EEEC2B7v160006IDnNS_18__default_init_tagEEEOT_OT0_, symObjAddr: 0x1174, symBinAddr: 0x100003638, symSize: 0x40 }
  - { offsetInCU: 0xF8F5, offset: 0xF8F5, size: 0x8, addend: 0x0, symName: __ZNSt3__122__compressed_pair_elemIPP4NodeIiELi0ELb0EEC2B7v160006IDnvEEOT_, symObjAddr: 0x11B4, symBinAddr: 0x100003678, symSize: 0x1C }
  - { offsetInCU: 0xF936, offset: 0xF936, size: 0x8, addend: 0x0, symName: __ZNSt3__122__compressed_pair_elemINS_9allocatorIP4NodeIiEEELi1ELb1EEC2B7v160006ENS_18__default_init_tagE, symObjAddr: 0x11D0, symBinAddr: 0x100003694, symSize: 0x2C }
  - { offsetInCU: 0xF96A, offset: 0xF96A, size: 0x8, addend: 0x0, symName: __ZNSt3__19allocatorIP4NodeIiEEC2B7v160006Ev, symObjAddr: 0x11FC, symBinAddr: 0x1000036C0, symSize: 0x2C }
  - { offsetInCU: 0xF993, offset: 0xF993, size: 0x8, addend: 0x0, symName: __ZNSt3__116__non_trivial_ifILb1ENS_9allocatorIP4NodeIiEEEEC2B7v160006Ev, symObjAddr: 0x1228, symBinAddr: 0x1000036EC, symSize: 0x14 }
  - { offsetInCU: 0xF9BC, offset: 0xF9BC, size: 0x8, addend: 0x0, symName: __ZNSt3__16vectorIP4NodeIiENS_9allocatorIS3_EEE9__end_capB7v160006Ev, symObjAddr: 0x123C, symBinAddr: 0x100003700, symSize: 0x28 }
  - { offsetInCU: 0xF9E1, offset: 0xF9E1, size: 0x8, addend: 0x0, symName: __ZNSt3__16vectorIP4NodeIiENS_9allocatorIS3_EEE22__construct_one_at_endB7v160006IJRKS3_EEEvDpOT_, symObjAddr: 0x1264, symBinAddr: 0x100003728, symSize: 0x90 }
  - { offsetInCU: 0xFA2E, offset: 0xFA2E, size: 0x8, addend: 0x0, symName: __ZNSt3__16vectorIP4NodeIiENS_9allocatorIS3_EEE21__push_back_slow_pathIRKS3_EEvOT_, symObjAddr: 0x12F4, symBinAddr: 0x1000037B8, symSize: 0xD8 }
  - { offsetInCU: 0xFA8B, offset: 0xFA8B, size: 0x8, addend: 0x0, symName: __ZNSt3__117__compressed_pairIPP4NodeIiENS_9allocatorIS3_EEE5firstB7v160006Ev, symObjAddr: 0x13CC, symBinAddr: 0x100003890, symSize: 0x24 }
  - { offsetInCU: 0xFAB0, offset: 0xFAB0, size: 0x8, addend: 0x0, symName: __ZNSt3__122__compressed_pair_elemIPP4NodeIiELi0ELb0EE5__getB7v160006Ev, symObjAddr: 0x13F0, symBinAddr: 0x1000038B4, symSize: 0x14 }
  - { offsetInCU: 0xFAEE, offset: 0xFAEE, size: 0x8, addend: 0x0, symName: __ZNSt3__16vectorIP4NodeIiENS_9allocatorIS3_EEE21_ConstructTransactionC1B7v160006ERS6_m, symObjAddr: 0x1404, symBinAddr: 0x1000038C8, symSize: 0x3C }
  - { offsetInCU: 0xFB35, offset: 0xFB35, size: 0x8, addend: 0x0, symName: __ZNSt3__116allocator_traitsINS_9allocatorIP4NodeIiEEEE9constructB7v160006IS4_JRKS4_EvEEvRS5_PT_DpOT0_, symObjAddr: 0x1440, symBinAddr: 0x100003904, symSize: 0x34 }
  - { offsetInCU: 0xFB8C, offset: 0xFB8C, size: 0x8, addend: 0x0, symName: __ZNSt3__16vectorIP4NodeIiENS_9allocatorIS3_EEE7__allocB7v160006Ev, symObjAddr: 0x1474, symBinAddr: 0x100003938, symSize: 0x28 }
  - { offsetInCU: 0xFBB1, offset: 0xFBB1, size: 0x8, addend: 0x0, symName: __ZNSt3__16vectorIP4NodeIiENS_9allocatorIS3_EEE21_ConstructTransactionD1B7v160006Ev, symObjAddr: 0x14B0, symBinAddr: 0x100003974, symSize: 0x2C }
  - { offsetInCU: 0xFBDA, offset: 0xFBDA, size: 0x8, addend: 0x0, symName: __ZNSt3__16vectorIP4NodeIiENS_9allocatorIS3_EEE21_ConstructTransactionC2B7v160006ERS6_m, symObjAddr: 0x14DC, symBinAddr: 0x1000039A0, symSize: 0x44 }
  - { offsetInCU: 0xFC21, offset: 0xFC21, size: 0x8, addend: 0x0, symName: __ZNSt3__19allocatorIP4NodeIiEE9constructB7v160006IS3_JRKS3_EEEvPT_DpOT0_, symObjAddr: 0x1520, symBinAddr: 0x1000039E4, symSize: 0x28 }
  - { offsetInCU: 0xFC76, offset: 0xFC76, size: 0x8, addend: 0x0, symName: __ZNSt3__117__compressed_pairIPP4NodeIiENS_9allocatorIS3_EEE6secondB7v160006Ev, symObjAddr: 0x1548, symBinAddr: 0x100003A0C, symSize: 0x24 }
  - { offsetInCU: 0xFC9B, offset: 0xFC9B, size: 0x8, addend: 0x0, symName: __ZNSt3__122__compressed_pair_elemINS_9allocatorIP4NodeIiEEELi1ELb1EE5__getB7v160006Ev, symObjAddr: 0x156C, symBinAddr: 0x100003A30, symSize: 0x14 }
  - { offsetInCU: 0xFCC0, offset: 0xFCC0, size: 0x8, addend: 0x0, symName: __ZNSt3__16vectorIP4NodeIiENS_9allocatorIS3_EEE21_ConstructTransactionD2B7v160006Ev, symObjAddr: 0x1580, symBinAddr: 0x100003A44, symSize: 0x20 }
  - { offsetInCU: 0xFCE8, offset: 0xFCE8, size: 0x8, addend: 0x0, symName: __ZNKSt3__16vectorIP4NodeIiENS_9allocatorIS3_EEE11__recommendB7v160006Em, symObjAddr: 0x15A0, symBinAddr: 0x100003A64, symSize: 0xB4 }
  - { offsetInCU: 0xFD3C, offset: 0xFD3C, size: 0x8, addend: 0x0, symName: __ZNKSt3__16vectorIP4NodeIiENS_9allocatorIS3_EEE4sizeB7v160006Ev, symObjAddr: 0x1654, symBinAddr: 0x100003B18, symSize: 0x28 }
  - { offsetInCU: 0xFD61, offset: 0xFD61, size: 0x8, addend: 0x0, symName: __ZNSt3__114__split_bufferIP4NodeIiERNS_9allocatorIS3_EEEC1EmmS6_, symObjAddr: 0x167C, symBinAddr: 0x100003B40, symSize: 0x44 }
  - { offsetInCU: 0xFDB6, offset: 0xFDB6, size: 0x8, addend: 0x0, symName: __ZNSt3__114__split_bufferIP4NodeIiERNS_9allocatorIS3_EEED1Ev, symObjAddr: 0x17D8, symBinAddr: 0x100003C9C, symSize: 0x2C }
  - { offsetInCU: 0xFDE0, offset: 0xFDE0, size: 0x8, addend: 0x0, symName: __ZNKSt3__16vectorIP4NodeIiENS_9allocatorIS3_EEE8max_sizeEv, symObjAddr: 0x1804, symBinAddr: 0x100003CC8, symSize: 0x60 }
  - { offsetInCU: 0xFE07, offset: 0xFE07, size: 0x8, addend: 0x0, symName: __ZNKSt3__16vectorIP4NodeIiENS_9allocatorIS3_EEE20__throw_length_errorB7v160006Ev, symObjAddr: 0x1864, symBinAddr: 0x100003D28, symSize: 0x1C }
  - { offsetInCU: 0xFE2C, offset: 0xFE2C, size: 0x8, addend: 0x0, symName: __ZNKSt3__16vectorIP4NodeIiENS_9allocatorIS3_EEE8capacityB7v160006Ev, symObjAddr: 0x1880, symBinAddr: 0x100003D44, symSize: 0x40 }
  - { offsetInCU: 0xFE5B, offset: 0xFE5B, size: 0x8, addend: 0x0, symName: __ZNSt3__116allocator_traitsINS_9allocatorIP4NodeIiEEEE8max_sizeB7v160006IS5_vEEmRKS5_, symObjAddr: 0x1918, symBinAddr: 0x100003DDC, symSize: 0x24 }
  - { offsetInCU: 0xFE89, offset: 0xFE89, size: 0x8, addend: 0x0, symName: __ZNKSt3__16vectorIP4NodeIiENS_9allocatorIS3_EEE7__allocB7v160006Ev, symObjAddr: 0x193C, symBinAddr: 0x100003E00, symSize: 0x28 }
  - { offsetInCU: 0xFEAE, offset: 0xFEAE, size: 0x8, addend: 0x0, symName: __ZNSt3__114numeric_limitsIlE3maxB7v160006Ev, symObjAddr: 0x1964, symBinAddr: 0x100003E28, symSize: 0x14 }
  - { offsetInCU: 0xFECC, offset: 0xFECC, size: 0x8, addend: 0x0, symName: __ZNKSt3__16__lessImmEclB7v160006ERKmS3_, symObjAddr: 0x19CC, symBinAddr: 0x100003E90, symSize: 0x34 }
  - { offsetInCU: 0xFF0D, offset: 0xFF0D, size: 0x8, addend: 0x0, symName: __ZNKSt3__19allocatorIP4NodeIiEE8max_sizeB7v160006Ev, symObjAddr: 0x1A00, symBinAddr: 0x100003EC4, symSize: 0x14 }
  - { offsetInCU: 0xFF32, offset: 0xFF32, size: 0x8, addend: 0x0, symName: __ZNKSt3__117__compressed_pairIPP4NodeIiENS_9allocatorIS3_EEE6secondB7v160006Ev, symObjAddr: 0x1A14, symBinAddr: 0x100003ED8, symSize: 0x24 }
  - { offsetInCU: 0xFF57, offset: 0xFF57, size: 0x8, addend: 0x0, symName: __ZNKSt3__122__compressed_pair_elemINS_9allocatorIP4NodeIiEEELi1ELb1EE5__getB7v160006Ev, symObjAddr: 0x1A38, symBinAddr: 0x100003EFC, symSize: 0x14 }
  - { offsetInCU: 0xFF7C, offset: 0xFF7C, size: 0x8, addend: 0x0, symName: __ZNSt3__123__libcpp_numeric_limitsIlLb1EE3maxB7v160006Ev, symObjAddr: 0x1A4C, symBinAddr: 0x100003F10, symSize: 0x8 }
  - { offsetInCU: 0xFF90, offset: 0xFF90, size: 0x8, addend: 0x0, symName: __ZNSt12length_errorC1B7v160006EPKc, symObjAddr: 0x1AB8, symBinAddr: 0x100003F7C, symSize: 0x34 }
  - { offsetInCU: 0xFFC7, offset: 0xFFC7, size: 0x8, addend: 0x0, symName: __ZNSt12length_errorC2B7v160006EPKc, symObjAddr: 0x1AEC, symBinAddr: 0x100003FB0, symSize: 0x4C }
  - { offsetInCU: 0xFFFE, offset: 0xFFFE, size: 0x8, addend: 0x0, symName: __ZNKSt3__16vectorIP4NodeIiENS_9allocatorIS3_EEE9__end_capB7v160006Ev, symObjAddr: 0x1B38, symBinAddr: 0x100003FFC, symSize: 0x28 }
  - { offsetInCU: 0x10023, offset: 0x10023, size: 0x8, addend: 0x0, symName: __ZNKSt3__117__compressed_pairIPP4NodeIiENS_9allocatorIS3_EEE5firstB7v160006Ev, symObjAddr: 0x1B60, symBinAddr: 0x100004024, symSize: 0x24 }
  - { offsetInCU: 0x10048, offset: 0x10048, size: 0x8, addend: 0x0, symName: __ZNKSt3__122__compressed_pair_elemIPP4NodeIiELi0ELb0EE5__getB7v160006Ev, symObjAddr: 0x1B84, symBinAddr: 0x100004048, symSize: 0x14 }
  - { offsetInCU: 0x1006D, offset: 0x1006D, size: 0x8, addend: 0x0, symName: __ZNSt3__114__split_bufferIP4NodeIiERNS_9allocatorIS3_EEEC2EmmS6_, symObjAddr: 0x1BEC, symBinAddr: 0x1000040B0, symSize: 0xD4 }
  - { offsetInCU: 0x100E0, offset: 0x100E0, size: 0x8, addend: 0x0, symName: __ZNSt3__117__compressed_pairIPP4NodeIiERNS_9allocatorIS3_EEEC1B7v160006IDnS7_EEOT_OT0_, symObjAddr: 0x1CC0, symBinAddr: 0x100004184, symSize: 0x3C }
  - { offsetInCU: 0x10137, offset: 0x10137, size: 0x8, addend: 0x0, symName: __ZNSt3__114__split_bufferIP4NodeIiERNS_9allocatorIS3_EEE7__allocB7v160006Ev, symObjAddr: 0x1D3C, symBinAddr: 0x100004200, symSize: 0x28 }
  - { offsetInCU: 0x1015C, offset: 0x1015C, size: 0x8, addend: 0x0, symName: __ZNSt3__114__split_bufferIP4NodeIiERNS_9allocatorIS3_EEE9__end_capB7v160006Ev, symObjAddr: 0x1D64, symBinAddr: 0x100004228, symSize: 0x28 }
  - { offsetInCU: 0x10181, offset: 0x10181, size: 0x8, addend: 0x0, symName: __ZNSt3__117__compressed_pairIPP4NodeIiERNS_9allocatorIS3_EEEC2B7v160006IDnS7_EEOT_OT0_, symObjAddr: 0x1D8C, symBinAddr: 0x100004250, symSize: 0x48 }
  - { offsetInCU: 0x101D8, offset: 0x101D8, size: 0x8, addend: 0x0, symName: __ZNSt3__122__compressed_pair_elemIRNS_9allocatorIP4NodeIiEEELi1ELb0EEC2B7v160006IS6_vEEOT_, symObjAddr: 0x1DD4, symBinAddr: 0x100004298, symSize: 0x20 }
  - { offsetInCU: 0x10219, offset: 0x10219, size: 0x8, addend: 0x0, symName: __ZNSt3__19allocatorIP4NodeIiEE8allocateB7v160006Em, symObjAddr: 0x1DF4, symBinAddr: 0x1000042B8, symSize: 0x58 }
  - { offsetInCU: 0x1024C, offset: 0x1024C, size: 0x8, addend: 0x0, symName: __ZNSt3__117__compressed_pairIPP4NodeIiERNS_9allocatorIS3_EEE6secondB7v160006Ev, symObjAddr: 0x1ECC, symBinAddr: 0x100004390, symSize: 0x28 }
  - { offsetInCU: 0x10271, offset: 0x10271, size: 0x8, addend: 0x0, symName: __ZNSt3__122__compressed_pair_elemIRNS_9allocatorIP4NodeIiEEELi1ELb0EE5__getB7v160006Ev, symObjAddr: 0x1EF4, symBinAddr: 0x1000043B8, symSize: 0x18 }
  - { offsetInCU: 0x10296, offset: 0x10296, size: 0x8, addend: 0x0, symName: __ZNSt3__117__compressed_pairIPP4NodeIiERNS_9allocatorIS3_EEE5firstB7v160006Ev, symObjAddr: 0x1F0C, symBinAddr: 0x1000043D0, symSize: 0x24 }
  - { offsetInCU: 0x102BB, offset: 0x102BB, size: 0x8, addend: 0x0, symName: __ZNKSt3__16vectorIP4NodeIiENS_9allocatorIS3_EEE17__annotate_deleteB7v160006Ev, symObjAddr: 0x1F30, symBinAddr: 0x1000043F4, symSize: 0xB8 }
  - { offsetInCU: 0x102E0, offset: 0x102E0, size: 0x8, addend: 0x0, symName: __ZNSt3__116reverse_iteratorIPP4NodeIiEEC1B7v160006ES4_, symObjAddr: 0x2060, symBinAddr: 0x100004524, symSize: 0x34 }
  - { offsetInCU: 0x10317, offset: 0x10317, size: 0x8, addend: 0x0, symName: __ZNKSt3__116reverse_iteratorIPP4NodeIiEE4baseB7v160006Ev, symObjAddr: 0x2094, symBinAddr: 0x100004558, symSize: 0x18 }
  - { offsetInCU: 0x1033C, offset: 0x1033C, size: 0x8, addend: 0x0, symName: __ZNKSt3__16vectorIP4NodeIiENS_9allocatorIS3_EEE14__annotate_newB7v160006Em, symObjAddr: 0x20E8, symBinAddr: 0x1000045AC, symSize: 0xAC }
  - { offsetInCU: 0x10370, offset: 0x10370, size: 0x8, addend: 0x0, symName: __ZNKSt3__16vectorIP4NodeIiENS_9allocatorIS3_EEE31__annotate_contiguous_containerB7v160006EPKvS8_S8_S8_, symObjAddr: 0x21A4, symBinAddr: 0x100004668, symSize: 0x20 }
  - { offsetInCU: 0x103C1, offset: 0x103C1, size: 0x8, addend: 0x0, symName: __ZNKSt3__16vectorIP4NodeIiENS_9allocatorIS3_EEE4dataB7v160006Ev, symObjAddr: 0x21C4, symBinAddr: 0x100004688, symSize: 0x28 }
  - { offsetInCU: 0x10409, offset: 0x10409, size: 0x8, addend: 0x0, symName: __ZNKSt3__111__move_loopINS_17_ClassicAlgPolicyEEclB7v160006INS_16reverse_iteratorIPP4NodeIiEEES9_S9_EENS_4pairIT_T1_EESB_T0_SC_, symObjAddr: 0x24DC, symBinAddr: 0x1000049A0, symSize: 0xA0 }
  - { offsetInCU: 0x10478, offset: 0x10478, size: 0x8, addend: 0x0, symName: __ZNSt3__18_IterOpsINS_17_ClassicAlgPolicyEE11__iter_moveB7v160006IRNS_16reverse_iteratorIPP4NodeIiEEEEENS_9enable_ifIXsr12is_referenceIDTdeclsr3stdE7declvalIRT_EEEEE5valueEDTclsr3stdE4movedeclsr3stdE7declvalISD_EEEEE4typeEOSC_, symObjAddr: 0x2710, symBinAddr: 0x100004BD4, symSize: 0x28 }
  - { offsetInCU: 0x104A4, offset: 0x104A4, size: 0x8, addend: 0x0, symName: __ZNKSt3__116reverse_iteratorIPP4NodeIiEEdeB7v160006Ev, symObjAddr: 0x2738, symBinAddr: 0x100004BFC, symSize: 0x28 }
  - { offsetInCU: 0x104D7, offset: 0x104D7, size: 0x8, addend: 0x0, symName: __ZNSt3__116reverse_iteratorIPP4NodeIiEEppB7v160006Ev, symObjAddr: 0x2760, symBinAddr: 0x100004C24, symSize: 0x20 }
  - { offsetInCU: 0x104FC, offset: 0x104FC, size: 0x8, addend: 0x0, symName: __ZNSt3__18_IterOpsINS_17_ClassicAlgPolicyEE25__validate_iter_referenceB7v160006IRNS_16reverse_iteratorIPP4NodeIiEEEEEvv, symObjAddr: 0x2780, symBinAddr: 0x100004C44, symSize: 0x4 }
  - { offsetInCU: 0x1051A, offset: 0x1051A, size: 0x8, addend: 0x0, symName: __ZNSt3__118__unwrap_iter_implINS_16reverse_iteratorIPP4NodeIiEEELb0EE8__unwrapB7v160006ES6_, symObjAddr: 0x2784, symBinAddr: 0x100004C48, symSize: 0x24 }
  - { offsetInCU: 0x10542, offset: 0x10542, size: 0x8, addend: 0x0, symName: __ZNSt3__14pairINS_16reverse_iteratorIPP4NodeIiEEES6_EC1B7v160006IS6_S6_LPv0EEEOT_OT0_, symObjAddr: 0x27A8, symBinAddr: 0x100004C6C, symSize: 0x3C }
  - { offsetInCU: 0x1059F, offset: 0x1059F, size: 0x8, addend: 0x0, symName: __ZNSt3__14pairINS_16reverse_iteratorIPP4NodeIiEEES6_EC2B7v160006IS6_S6_LPv0EEEOT_OT0_, symObjAddr: 0x27E4, symBinAddr: 0x100004CA8, symSize: 0x34 }
  - { offsetInCU: 0x105FC, offset: 0x105FC, size: 0x8, addend: 0x0, symName: __ZNSt3__118__unwrap_iter_implINS_16reverse_iteratorIPP4NodeIiEEELb0EE8__rewrapB7v160006ES6_S6_, symObjAddr: 0x2818, symBinAddr: 0x100004CDC, symSize: 0x2C }
  - { offsetInCU: 0x1062A, offset: 0x1062A, size: 0x8, addend: 0x0, symName: __ZNSt3__116reverse_iteratorIPP4NodeIiEEC2B7v160006ES4_, symObjAddr: 0x2844, symBinAddr: 0x100004D08, symSize: 0x28 }
  - { offsetInCU: 0x10661, offset: 0x10661, size: 0x8, addend: 0x0, symName: __ZNSt3__114__split_bufferIP4NodeIiERNS_9allocatorIS3_EEED2Ev, symObjAddr: 0x286C, symBinAddr: 0x100004D30, symSize: 0x8C }
  - { offsetInCU: 0x1068C, offset: 0x1068C, size: 0x8, addend: 0x0, symName: __ZNSt3__114__split_bufferIP4NodeIiERNS_9allocatorIS3_EEE5clearB7v160006Ev, symObjAddr: 0x28F8, symBinAddr: 0x100004DBC, symSize: 0x28 }
  - { offsetInCU: 0x106B1, offset: 0x106B1, size: 0x8, addend: 0x0, symName: __ZNSt3__116allocator_traitsINS_9allocatorIP4NodeIiEEEE10deallocateB7v160006ERS5_PS4_m, symObjAddr: 0x2920, symBinAddr: 0x100004DE4, symSize: 0x34 }
  - { offsetInCU: 0x106F3, offset: 0x106F3, size: 0x8, addend: 0x0, symName: __ZNKSt3__114__split_bufferIP4NodeIiERNS_9allocatorIS3_EEE8capacityB7v160006Ev, symObjAddr: 0x2954, symBinAddr: 0x100004E18, symSize: 0x40 }
  - { offsetInCU: 0x10718, offset: 0x10718, size: 0x8, addend: 0x0, symName: __ZNSt3__114__split_bufferIP4NodeIiERNS_9allocatorIS3_EEE17__destruct_at_endB7v160006EPS3_, symObjAddr: 0x2994, symBinAddr: 0x100004E58, symSize: 0x2C }
  - { offsetInCU: 0x1074A, offset: 0x1074A, size: 0x8, addend: 0x0, symName: __ZNSt3__114__split_bufferIP4NodeIiERNS_9allocatorIS3_EEE17__destruct_at_endB7v160006EPS3_NS_17integral_constantIbLb0EEE, symObjAddr: 0x29C0, symBinAddr: 0x100004E84, symSize: 0x80 }
  - { offsetInCU: 0x1078A, offset: 0x1078A, size: 0x8, addend: 0x0, symName: __ZNSt3__116allocator_traitsINS_9allocatorIP4NodeIiEEEE7destroyB7v160006IS4_vEEvRS5_PT_, symObjAddr: 0x2A40, symBinAddr: 0x100004F04, symSize: 0x2C }
  - { offsetInCU: 0x107C7, offset: 0x107C7, size: 0x8, addend: 0x0, symName: __ZNSt3__19allocatorIP4NodeIiEE7destroyB7v160006EPS3_, symObjAddr: 0x2A6C, symBinAddr: 0x100004F30, symSize: 0x14 }
  - { offsetInCU: 0x107FA, offset: 0x107FA, size: 0x8, addend: 0x0, symName: __ZNSt3__19allocatorIP4NodeIiEE10deallocateB7v160006EPS3_m, symObjAddr: 0x2A80, symBinAddr: 0x100004F44, symSize: 0x40 }
  - { offsetInCU: 0x1083B, offset: 0x1083B, size: 0x8, addend: 0x0, symName: __ZNKSt3__114__split_bufferIP4NodeIiERNS_9allocatorIS3_EEE9__end_capB7v160006Ev, symObjAddr: 0x2AC0, symBinAddr: 0x100004F84, symSize: 0x28 }
  - { offsetInCU: 0x10860, offset: 0x10860, size: 0x8, addend: 0x0, symName: __ZNKSt3__117__compressed_pairIPP4NodeIiERNS_9allocatorIS3_EEE5firstB7v160006Ev, symObjAddr: 0x2AE8, symBinAddr: 0x100004FAC, symSize: 0x24 }
  - { offsetInCU: 0x10885, offset: 0x10885, size: 0x8, addend: 0x0, symName: __ZNSt3__16vectorIP4NodeIiENS_9allocatorIS3_EEED2B7v160006Ev, symObjAddr: 0x2B0C, symBinAddr: 0x100004FD0, symSize: 0x44 }
  - { offsetInCU: 0x108AE, offset: 0x108AE, size: 0x8, addend: 0x0, symName: __ZNSt3__16vectorIP4NodeIiENS_9allocatorIS3_EEE16__destroy_vectorC1ERS6_, symObjAddr: 0x2B50, symBinAddr: 0x100005014, symSize: 0x34 }
  - { offsetInCU: 0x108E6, offset: 0x108E6, size: 0x8, addend: 0x0, symName: __ZNSt3__16vectorIP4NodeIiENS_9allocatorIS3_EEE16__destroy_vectorclB7v160006Ev, symObjAddr: 0x2B84, symBinAddr: 0x100005048, symSize: 0x9C }
  - { offsetInCU: 0x1090B, offset: 0x1090B, size: 0x8, addend: 0x0, symName: __ZNSt3__16vectorIP4NodeIiENS_9allocatorIS3_EEE16__destroy_vectorC2ERS6_, symObjAddr: 0x2C20, symBinAddr: 0x1000050E4, symSize: 0x20 }
  - { offsetInCU: 0x10943, offset: 0x10943, size: 0x8, addend: 0x0, symName: __ZNSt3__16vectorIP4NodeIiENS_9allocatorIS3_EEE7__clearB7v160006Ev, symObjAddr: 0x2C50, symBinAddr: 0x100005114, symSize: 0x28 }
  - { offsetInCU: 0x10968, offset: 0x10968, size: 0x8, addend: 0x0, symName: __ZNSt3__16vectorIP4NodeIiENS_9allocatorIS3_EEE22__base_destruct_at_endB7v160006EPS3_, symObjAddr: 0x2C78, symBinAddr: 0x10000513C, symSize: 0x8C }
  - { offsetInCU: 0x109AB, offset: 0x109AB, size: 0x8, addend: 0x0, symName: __ZNSt3__16vectorIP5BlockIiENS_9allocatorIS3_EEE22__construct_one_at_endB7v160006IJRKS3_EEEvDpOT_, symObjAddr: 0x2D04, symBinAddr: 0x1000051C8, symSize: 0x90 }
  - { offsetInCU: 0x109F8, offset: 0x109F8, size: 0x8, addend: 0x0, symName: __ZNSt3__16vectorIP5BlockIiENS_9allocatorIS3_EEE21__push_back_slow_pathIRKS3_EEvOT_, symObjAddr: 0x2D94, symBinAddr: 0x100005258, symSize: 0xD8 }
  - { offsetInCU: 0x10A6E, offset: 0x10A6E, size: 0x8, addend: 0x0, symName: __ZNSt3__16vectorIP5BlockIiENS_9allocatorIS3_EEE21_ConstructTransactionC1B7v160006ERS6_m, symObjAddr: 0x2E6C, symBinAddr: 0x100005330, symSize: 0x3C }
  - { offsetInCU: 0x10AB5, offset: 0x10AB5, size: 0x8, addend: 0x0, symName: __ZNSt3__116allocator_traitsINS_9allocatorIP5BlockIiEEEE9constructB7v160006IS4_JRKS4_EvEEvRS5_PT_DpOT0_, symObjAddr: 0x2EA8, symBinAddr: 0x10000536C, symSize: 0x34 }
  - { offsetInCU: 0x10B0C, offset: 0x10B0C, size: 0x8, addend: 0x0, symName: __ZNSt3__16vectorIP5BlockIiENS_9allocatorIS3_EEE21_ConstructTransactionD1B7v160006Ev, symObjAddr: 0x2EDC, symBinAddr: 0x1000053A0, symSize: 0x2C }
  - { offsetInCU: 0x10B35, offset: 0x10B35, size: 0x8, addend: 0x0, symName: __ZNSt3__16vectorIP5BlockIiENS_9allocatorIS3_EEE21_ConstructTransactionC2B7v160006ERS6_m, symObjAddr: 0x2F08, symBinAddr: 0x1000053CC, symSize: 0x44 }
  - { offsetInCU: 0x10B7C, offset: 0x10B7C, size: 0x8, addend: 0x0, symName: __ZNSt3__19allocatorIP5BlockIiEE9constructB7v160006IS3_JRKS3_EEEvPT_DpOT0_, symObjAddr: 0x2F4C, symBinAddr: 0x100005410, symSize: 0x28 }
  - { offsetInCU: 0x10BD1, offset: 0x10BD1, size: 0x8, addend: 0x0, symName: __ZNSt3__16vectorIP5BlockIiENS_9allocatorIS3_EEE21_ConstructTransactionD2B7v160006Ev, symObjAddr: 0x2F74, symBinAddr: 0x100005438, symSize: 0x20 }
  - { offsetInCU: 0x10BF9, offset: 0x10BF9, size: 0x8, addend: 0x0, symName: __ZNKSt3__16vectorIP5BlockIiENS_9allocatorIS3_EEE11__recommendB7v160006Em, symObjAddr: 0x2F94, symBinAddr: 0x100005458, symSize: 0xB4 }
  - { offsetInCU: 0x10C4D, offset: 0x10C4D, size: 0x8, addend: 0x0, symName: __ZNSt3__114__split_bufferIP5BlockIiERNS_9allocatorIS3_EEEC1EmmS6_, symObjAddr: 0x3048, symBinAddr: 0x10000550C, symSize: 0x44 }
  - { offsetInCU: 0x10CA2, offset: 0x10CA2, size: 0x8, addend: 0x0, symName: __ZNSt3__114__split_bufferIP5BlockIiERNS_9allocatorIS3_EEED1Ev, symObjAddr: 0x31A4, symBinAddr: 0x100005668, symSize: 0x2C }
  - { offsetInCU: 0x10CCC, offset: 0x10CCC, size: 0x8, addend: 0x0, symName: __ZNKSt3__16vectorIP5BlockIiENS_9allocatorIS3_EEE8max_sizeEv, symObjAddr: 0x31D0, symBinAddr: 0x100005694, symSize: 0x60 }
  - { offsetInCU: 0x10CF3, offset: 0x10CF3, size: 0x8, addend: 0x0, symName: __ZNKSt3__16vectorIP5BlockIiENS_9allocatorIS3_EEE20__throw_length_errorB7v160006Ev, symObjAddr: 0x3230, symBinAddr: 0x1000056F4, symSize: 0x1C }
  - { offsetInCU: 0x10D22, offset: 0x10D22, size: 0x8, addend: 0x0, symName: __ZNSt3__116allocator_traitsINS_9allocatorIP5BlockIiEEEE8max_sizeB7v160006IS5_vEEmRKS5_, symObjAddr: 0x324C, symBinAddr: 0x100005710, symSize: 0x24 }
  - { offsetInCU: 0x10D50, offset: 0x10D50, size: 0x8, addend: 0x0, symName: __ZNKSt3__16vectorIP5BlockIiENS_9allocatorIS3_EEE7__allocB7v160006Ev, symObjAddr: 0x3270, symBinAddr: 0x100005734, symSize: 0x28 }
  - { offsetInCU: 0x10D75, offset: 0x10D75, size: 0x8, addend: 0x0, symName: __ZNKSt3__19allocatorIP5BlockIiEE8max_sizeB7v160006Ev, symObjAddr: 0x3298, symBinAddr: 0x10000575C, symSize: 0x14 }
  - { offsetInCU: 0x10D9A, offset: 0x10D9A, size: 0x8, addend: 0x0, symName: __ZNKSt3__117__compressed_pairIPP5BlockIiENS_9allocatorIS3_EEE6secondB7v160006Ev, symObjAddr: 0x32AC, symBinAddr: 0x100005770, symSize: 0x24 }
  - { offsetInCU: 0x10DBF, offset: 0x10DBF, size: 0x8, addend: 0x0, symName: __ZNKSt3__122__compressed_pair_elemINS_9allocatorIP5BlockIiEEELi1ELb1EE5__getB7v160006Ev, symObjAddr: 0x32D0, symBinAddr: 0x100005794, symSize: 0x14 }
  - { offsetInCU: 0x10DE4, offset: 0x10DE4, size: 0x8, addend: 0x0, symName: __ZNSt3__114__split_bufferIP5BlockIiERNS_9allocatorIS3_EEEC2EmmS6_, symObjAddr: 0x32E4, symBinAddr: 0x1000057A8, symSize: 0xD4 }
  - { offsetInCU: 0x10E57, offset: 0x10E57, size: 0x8, addend: 0x0, symName: __ZNSt3__117__compressed_pairIPP5BlockIiERNS_9allocatorIS3_EEEC1B7v160006IDnS7_EEOT_OT0_, symObjAddr: 0x33B8, symBinAddr: 0x10000587C, symSize: 0x3C }
  - { offsetInCU: 0x10EAE, offset: 0x10EAE, size: 0x8, addend: 0x0, symName: __ZNSt3__114__split_bufferIP5BlockIiERNS_9allocatorIS3_EEE7__allocB7v160006Ev, symObjAddr: 0x3434, symBinAddr: 0x1000058F8, symSize: 0x28 }
  - { offsetInCU: 0x10ED3, offset: 0x10ED3, size: 0x8, addend: 0x0, symName: __ZNSt3__114__split_bufferIP5BlockIiERNS_9allocatorIS3_EEE9__end_capB7v160006Ev, symObjAddr: 0x345C, symBinAddr: 0x100005920, symSize: 0x28 }
  - { offsetInCU: 0x10EF8, offset: 0x10EF8, size: 0x8, addend: 0x0, symName: __ZNSt3__117__compressed_pairIPP5BlockIiERNS_9allocatorIS3_EEEC2B7v160006IDnS7_EEOT_OT0_, symObjAddr: 0x3484, symBinAddr: 0x100005948, symSize: 0x48 }
  - { offsetInCU: 0x10F4F, offset: 0x10F4F, size: 0x8, addend: 0x0, symName: __ZNSt3__122__compressed_pair_elemIRNS_9allocatorIP5BlockIiEEELi1ELb0EEC2B7v160006IS6_vEEOT_, symObjAddr: 0x34CC, symBinAddr: 0x100005990, symSize: 0x20 }
  - { offsetInCU: 0x10F90, offset: 0x10F90, size: 0x8, addend: 0x0, symName: __ZNSt3__19allocatorIP5BlockIiEE8allocateB7v160006Em, symObjAddr: 0x34EC, symBinAddr: 0x1000059B0, symSize: 0x58 }
  - { offsetInCU: 0x10FC3, offset: 0x10FC3, size: 0x8, addend: 0x0, symName: __ZNSt3__117__compressed_pairIPP5BlockIiERNS_9allocatorIS3_EEE6secondB7v160006Ev, symObjAddr: 0x3544, symBinAddr: 0x100005A08, symSize: 0x28 }
  - { offsetInCU: 0x10FE8, offset: 0x10FE8, size: 0x8, addend: 0x0, symName: __ZNSt3__122__compressed_pair_elemIRNS_9allocatorIP5BlockIiEEELi1ELb0EE5__getB7v160006Ev, symObjAddr: 0x356C, symBinAddr: 0x100005A30, symSize: 0x18 }
  - { offsetInCU: 0x1100D, offset: 0x1100D, size: 0x8, addend: 0x0, symName: __ZNSt3__117__compressed_pairIPP5BlockIiERNS_9allocatorIS3_EEE5firstB7v160006Ev, symObjAddr: 0x3584, symBinAddr: 0x100005A48, symSize: 0x24 }
  - { offsetInCU: 0x11032, offset: 0x11032, size: 0x8, addend: 0x0, symName: __ZNSt3__116reverse_iteratorIPP5BlockIiEEC1B7v160006ES4_, symObjAddr: 0x3620, symBinAddr: 0x100005AE4, symSize: 0x34 }
  - { offsetInCU: 0x11069, offset: 0x11069, size: 0x8, addend: 0x0, symName: __ZNKSt3__116reverse_iteratorIPP5BlockIiEE4baseB7v160006Ev, symObjAddr: 0x3654, symBinAddr: 0x100005B18, symSize: 0x18 }
  - { offsetInCU: 0x1108E, offset: 0x1108E, size: 0x8, addend: 0x0, symName: __ZNKSt3__16vectorIP5BlockIiENS_9allocatorIS3_EEE14__annotate_newB7v160006Em, symObjAddr: 0x36A8, symBinAddr: 0x100005B6C, symSize: 0xAC }
  - { offsetInCU: 0x110DB, offset: 0x110DB, size: 0x8, addend: 0x0, symName: __ZNKSt3__111__move_loopINS_17_ClassicAlgPolicyEEclB7v160006INS_16reverse_iteratorIPP5BlockIiEEES9_S9_EENS_4pairIT_T1_EESB_T0_SC_, symObjAddr: 0x3A44, symBinAddr: 0x100005F08, symSize: 0xA0 }
  - { offsetInCU: 0x1114A, offset: 0x1114A, size: 0x8, addend: 0x0, symName: __ZNSt3__18_IterOpsINS_17_ClassicAlgPolicyEE11__iter_moveB7v160006IRNS_16reverse_iteratorIPP5BlockIiEEEEENS_9enable_ifIXsr12is_referenceIDTdeclsr3stdE7declvalIRT_EEEEE5valueEDTclsr3stdE4movedeclsr3stdE7declvalISD_EEEEE4typeEOSC_, symObjAddr: 0x3C78, symBinAddr: 0x10000613C, symSize: 0x28 }
  - { offsetInCU: 0x11176, offset: 0x11176, size: 0x8, addend: 0x0, symName: __ZNKSt3__116reverse_iteratorIPP5BlockIiEEdeB7v160006Ev, symObjAddr: 0x3CA0, symBinAddr: 0x100006164, symSize: 0x28 }
  - { offsetInCU: 0x111A9, offset: 0x111A9, size: 0x8, addend: 0x0, symName: __ZNSt3__116reverse_iteratorIPP5BlockIiEEppB7v160006Ev, symObjAddr: 0x3CC8, symBinAddr: 0x10000618C, symSize: 0x20 }
  - { offsetInCU: 0x111CE, offset: 0x111CE, size: 0x8, addend: 0x0, symName: __ZNSt3__18_IterOpsINS_17_ClassicAlgPolicyEE25__validate_iter_referenceB7v160006IRNS_16reverse_iteratorIPP5BlockIiEEEEEvv, symObjAddr: 0x3CE8, symBinAddr: 0x1000061AC, symSize: 0x4 }
  - { offsetInCU: 0x111EC, offset: 0x111EC, size: 0x8, addend: 0x0, symName: __ZNSt3__118__unwrap_iter_implINS_16reverse_iteratorIPP5BlockIiEEELb0EE8__unwrapB7v160006ES6_, symObjAddr: 0x3CEC, symBinAddr: 0x1000061B0, symSize: 0x24 }
  - { offsetInCU: 0x11214, offset: 0x11214, size: 0x8, addend: 0x0, symName: __ZNSt3__14pairINS_16reverse_iteratorIPP5BlockIiEEES6_EC1B7v160006IS6_S6_LPv0EEEOT_OT0_, symObjAddr: 0x3D10, symBinAddr: 0x1000061D4, symSize: 0x3C }
  - { offsetInCU: 0x11271, offset: 0x11271, size: 0x8, addend: 0x0, symName: __ZNSt3__14pairINS_16reverse_iteratorIPP5BlockIiEEES6_EC2B7v160006IS6_S6_LPv0EEEOT_OT0_, symObjAddr: 0x3D4C, symBinAddr: 0x100006210, symSize: 0x34 }
  - { offsetInCU: 0x112CE, offset: 0x112CE, size: 0x8, addend: 0x0, symName: __ZNSt3__118__unwrap_iter_implINS_16reverse_iteratorIPP5BlockIiEEELb0EE8__rewrapB7v160006ES6_S6_, symObjAddr: 0x3D80, symBinAddr: 0x100006244, symSize: 0x2C }
  - { offsetInCU: 0x112FC, offset: 0x112FC, size: 0x8, addend: 0x0, symName: __ZNSt3__116reverse_iteratorIPP5BlockIiEEC2B7v160006ES4_, symObjAddr: 0x3DAC, symBinAddr: 0x100006270, symSize: 0x28 }
  - { offsetInCU: 0x11333, offset: 0x11333, size: 0x8, addend: 0x0, symName: __ZNSt3__114__split_bufferIP5BlockIiERNS_9allocatorIS3_EEED2Ev, symObjAddr: 0x3DD4, symBinAddr: 0x100006298, symSize: 0x8C }
  - { offsetInCU: 0x1135E, offset: 0x1135E, size: 0x8, addend: 0x0, symName: __ZNSt3__114__split_bufferIP5BlockIiERNS_9allocatorIS3_EEE5clearB7v160006Ev, symObjAddr: 0x3E60, symBinAddr: 0x100006324, symSize: 0x28 }
  - { offsetInCU: 0x11383, offset: 0x11383, size: 0x8, addend: 0x0, symName: __ZNKSt3__114__split_bufferIP5BlockIiERNS_9allocatorIS3_EEE8capacityB7v160006Ev, symObjAddr: 0x3E88, symBinAddr: 0x10000634C, symSize: 0x40 }
  - { offsetInCU: 0x113A8, offset: 0x113A8, size: 0x8, addend: 0x0, symName: __ZNSt3__114__split_bufferIP5BlockIiERNS_9allocatorIS3_EEE17__destruct_at_endB7v160006EPS3_, symObjAddr: 0x3EC8, symBinAddr: 0x10000638C, symSize: 0x2C }
  - { offsetInCU: 0x113DA, offset: 0x113DA, size: 0x8, addend: 0x0, symName: __ZNSt3__114__split_bufferIP5BlockIiERNS_9allocatorIS3_EEE17__destruct_at_endB7v160006EPS3_NS_17integral_constantIbLb0EEE, symObjAddr: 0x3EF4, symBinAddr: 0x1000063B8, symSize: 0x80 }
  - { offsetInCU: 0x1141A, offset: 0x1141A, size: 0x8, addend: 0x0, symName: __ZNKSt3__114__split_bufferIP5BlockIiERNS_9allocatorIS3_EEE9__end_capB7v160006Ev, symObjAddr: 0x3F74, symBinAddr: 0x100006438, symSize: 0x28 }
  - { offsetInCU: 0x1143F, offset: 0x1143F, size: 0x8, addend: 0x0, symName: __ZNKSt3__117__compressed_pairIPP5BlockIiERNS_9allocatorIS3_EEE5firstB7v160006Ev, symObjAddr: 0x3F9C, symBinAddr: 0x100006460, symSize: 0x24 }
  - { offsetInCU: 0x11464, offset: 0x11464, size: 0x8, addend: 0x0, symName: __ZN9BSkipListIiED2Ev, symObjAddr: 0x3FC0, symBinAddr: 0x100006484, symSize: 0x2C }
  - { offsetInCU: 0x1148F, offset: 0x1148F, size: 0x8, addend: 0x0, symName: __ZNSt3__16vectorIP5BlockIiENS_9allocatorIS3_EEE6rbeginB7v160006Ev, symObjAddr: 0x3FEC, symBinAddr: 0x1000064B0, symSize: 0x44 }
  - { offsetInCU: 0x114B4, offset: 0x114B4, size: 0x8, addend: 0x0, symName: __ZNSt3__16vectorIP5BlockIiENS_9allocatorIS3_EEE4rendB7v160006Ev, symObjAddr: 0x4084, symBinAddr: 0x100006548, symSize: 0x44 }
  - { offsetInCU: 0x114D9, offset: 0x114D9, size: 0x8, addend: 0x0, symName: __ZNKSt3__116reverse_iteratorINS_11__wrap_iterIPP5BlockIiEEEEdeB7v160006Ev, symObjAddr: 0x40C8, symBinAddr: 0x10000658C, symSize: 0x34 }
  - { offsetInCU: 0x1150C, offset: 0x1150C, size: 0x8, addend: 0x0, symName: __ZN5BlockIiE5printEv, symObjAddr: 0x40FC, symBinAddr: 0x1000065C0, symSize: 0xAC }
  - { offsetInCU: 0x11586, offset: 0x11586, size: 0x8, addend: 0x0, symName: __ZN5BlockIiE8get_nextEv, symObjAddr: 0x41A8, symBinAddr: 0x10000666C, symSize: 0x18 }
  - { offsetInCU: 0x115AD, offset: 0x115AD, size: 0x8, addend: 0x0, symName: __ZNSt3__113basic_ostreamIcNS_11char_traitsIcEEElsB7v160006EPFRS3_S4_E, symObjAddr: 0x41C0, symBinAddr: 0x100006684, symSize: 0x2C }
  - { offsetInCU: 0x115E0, offset: 0x115E0, size: 0x8, addend: 0x0, symName: __ZNSt3__116reverse_iteratorINS_11__wrap_iterIPP5BlockIiEEEEppB7v160006Ev, symObjAddr: 0x4244, symBinAddr: 0x100006708, symSize: 0x30 }
  - { offsetInCU: 0x11604, offset: 0x11604, size: 0x8, addend: 0x0, symName: __ZNSt3__16vectorIP5BlockIiENS_9allocatorIS3_EEE3endB7v160006Ev, symObjAddr: 0x4274, symBinAddr: 0x100006738, symSize: 0x30 }
  - { offsetInCU: 0x1162B, offset: 0x1162B, size: 0x8, addend: 0x0, symName: __ZNSt3__116reverse_iteratorINS_11__wrap_iterIPP5BlockIiEEEEC1B7v160006ES6_, symObjAddr: 0x42A4, symBinAddr: 0x100006768, symSize: 0x34 }
  - { offsetInCU: 0x11662, offset: 0x11662, size: 0x8, addend: 0x0, symName: __ZNSt3__16vectorIP5BlockIiENS_9allocatorIS3_EEE11__make_iterB7v160006EPS3_, symObjAddr: 0x42D8, symBinAddr: 0x10000679C, symSize: 0x34 }
  - { offsetInCU: 0x11696, offset: 0x11696, size: 0x8, addend: 0x0, symName: __ZNSt3__111__wrap_iterIPP5BlockIiEEC1B7v160006EPKvS4_, symObjAddr: 0x430C, symBinAddr: 0x1000067D0, symSize: 0x3C }
  - { offsetInCU: 0x116DB, offset: 0x116DB, size: 0x8, addend: 0x0, symName: __ZNSt3__111__wrap_iterIPP5BlockIiEEC2B7v160006EPKvS4_, symObjAddr: 0x4348, symBinAddr: 0x10000680C, symSize: 0x24 }
  - { offsetInCU: 0x11720, offset: 0x11720, size: 0x8, addend: 0x0, symName: __ZNSt3__116reverse_iteratorINS_11__wrap_iterIPP5BlockIiEEEEC2B7v160006ES6_, symObjAddr: 0x436C, symBinAddr: 0x100006830, symSize: 0x28 }
  - { offsetInCU: 0x11757, offset: 0x11757, size: 0x8, addend: 0x0, symName: __ZNKSt3__116reverse_iteratorINS_11__wrap_iterIPP5BlockIiEEEE4baseB7v160006Ev, symObjAddr: 0x43C8, symBinAddr: 0x10000688C, symSize: 0x20 }
  - { offsetInCU: 0x1177C, offset: 0x1177C, size: 0x8, addend: 0x0, symName: __ZNKSt3__111__wrap_iterIPP5BlockIiEE4baseB7v160006Ev, symObjAddr: 0x4430, symBinAddr: 0x1000068F4, symSize: 0x18 }
  - { offsetInCU: 0x117A0, offset: 0x117A0, size: 0x8, addend: 0x0, symName: __ZNSt3__16vectorIP5BlockIiENS_9allocatorIS3_EEE5beginB7v160006Ev, symObjAddr: 0x4448, symBinAddr: 0x10000690C, symSize: 0x30 }
  - { offsetInCU: 0x117C7, offset: 0x117C7, size: 0x8, addend: 0x0, symName: __ZNSt3__111__wrap_iterIPP5BlockIiEEmmB7v160006Ev, symObjAddr: 0x4478, symBinAddr: 0x10000693C, symSize: 0x20 }
  - { offsetInCU: 0x117EC, offset: 0x117EC, size: 0x8, addend: 0x0, symName: __ZNKSt3__111__wrap_iterIPP5BlockIiEEdeB7v160006Ev, symObjAddr: 0x4498, symBinAddr: 0x10000695C, symSize: 0x18 }
  - { offsetInCU: 0x11810, offset: 0x11810, size: 0x8, addend: 0x0, symName: __ZNSt3__16vectorIP4NodeIiENS_9allocatorIS3_EEE5beginB7v160006Ev, symObjAddr: 0x44B0, symBinAddr: 0x100006974, symSize: 0x30 }
  - { offsetInCU: 0x11836, offset: 0x11836, size: 0x8, addend: 0x0, symName: __ZNSt3__16vectorIP4NodeIiENS_9allocatorIS3_EEE3endB7v160006Ev, symObjAddr: 0x44E0, symBinAddr: 0x1000069A4, symSize: 0x30 }
  - { offsetInCU: 0x1185D, offset: 0x1185D, size: 0x8, addend: 0x0, symName: __ZNKSt3__111__wrap_iterIPP4NodeIiEEdeB7v160006Ev, symObjAddr: 0x4544, symBinAddr: 0x100006A08, symSize: 0x18 }
  - { offsetInCU: 0x11882, offset: 0x11882, size: 0x8, addend: 0x0, symName: __ZN4NodeIiE7get_keyEv, symObjAddr: 0x45A4, symBinAddr: 0x100006A68, symSize: 0x24 }
  - { offsetInCU: 0x118A9, offset: 0x118A9, size: 0x8, addend: 0x0, symName: __ZNSt3__111__wrap_iterIPP4NodeIiEEppB7v160006Ev, symObjAddr: 0x45C8, symBinAddr: 0x100006A8C, symSize: 0x20 }
  - { offsetInCU: 0x118CE, offset: 0x118CE, size: 0x8, addend: 0x0, symName: __ZNSt3__16vectorIP4NodeIiENS_9allocatorIS3_EEE11__make_iterB7v160006EPS3_, symObjAddr: 0x45E8, symBinAddr: 0x100006AAC, symSize: 0x34 }
  - { offsetInCU: 0x11902, offset: 0x11902, size: 0x8, addend: 0x0, symName: __ZNSt3__111__wrap_iterIPP4NodeIiEEC1B7v160006EPKvS4_, symObjAddr: 0x461C, symBinAddr: 0x100006AE0, symSize: 0x3C }
  - { offsetInCU: 0x11947, offset: 0x11947, size: 0x8, addend: 0x0, symName: __ZNSt3__111__wrap_iterIPP4NodeIiEEC2B7v160006EPKvS4_, symObjAddr: 0x4658, symBinAddr: 0x100006B1C, symSize: 0x24 }
  - { offsetInCU: 0x1198C, offset: 0x1198C, size: 0x8, addend: 0x0, symName: __ZNKSt3__111__wrap_iterIPP4NodeIiEE4baseB7v160006Ev, symObjAddr: 0x46C4, symBinAddr: 0x100006B88, symSize: 0x18 }
  - { offsetInCU: 0x119B1, offset: 0x119B1, size: 0x8, addend: 0x0, symName: __ZNSt3__111char_traitsIcE6lengthEPKc, symObjAddr: 0x48C8, symBinAddr: 0x100006D8C, symSize: 0x34 }
  - { offsetInCU: 0x119F2, offset: 0x119F2, size: 0x8, addend: 0x0, symName: __ZNKSt3__113basic_ostreamIcNS_11char_traitsIcEEE6sentrycvbB7v160006Ev, symObjAddr: 0x48FC, symBinAddr: 0x100006DC0, symSize: 0x1C }
  - { offsetInCU: 0x11A17, offset: 0x11A17, size: 0x8, addend: 0x0, symName: __ZNSt3__119ostreambuf_iteratorIcNS_11char_traitsIcEEEC1B7v160006ERNS_13basic_ostreamIcS2_EE, symObjAddr: 0x4B58, symBinAddr: 0x10000701C, symSize: 0x34 }
  - { offsetInCU: 0x11A4E, offset: 0x11A4E, size: 0x8, addend: 0x0, symName: __ZNKSt3__18ios_base5flagsB7v160006Ev, symObjAddr: 0x4B8C, symBinAddr: 0x100007050, symSize: 0x18 }
  - { offsetInCU: 0x11A74, offset: 0x11A74, size: 0x8, addend: 0x0, symName: __ZNKSt3__19basic_iosIcNS_11char_traitsIcEEE4fillB7v160006Ev, symObjAddr: 0x4BA4, symBinAddr: 0x100007068, symSize: 0x64 }
  - { offsetInCU: 0x11A9B, offset: 0x11A9B, size: 0x8, addend: 0x0, symName: __ZNKSt3__119ostreambuf_iteratorIcNS_11char_traitsIcEEE6failedB7v160006Ev, symObjAddr: 0x4C08, symBinAddr: 0x1000070CC, symSize: 0x24 }
  - { offsetInCU: 0x11AC0, offset: 0x11AC0, size: 0x8, addend: 0x0, symName: __ZNSt3__19basic_iosIcNS_11char_traitsIcEEE8setstateB7v160006Ej, symObjAddr: 0x4C2C, symBinAddr: 0x1000070F0, symSize: 0x2C }
  - { offsetInCU: 0x11AF4, offset: 0x11AF4, size: 0x8, addend: 0x0, symName: __ZNKSt3__18ios_base5widthB7v160006Ev, symObjAddr: 0x4C58, symBinAddr: 0x10000711C, symSize: 0x18 }
  - { offsetInCU: 0x11B1B, offset: 0x11B1B, size: 0x8, addend: 0x0, symName: __ZNSt3__115basic_streambufIcNS_11char_traitsIcEEE5sputnB7v160006EPKcl, symObjAddr: 0x4C70, symBinAddr: 0x100007134, symSize: 0x3C }
  - { offsetInCU: 0x11B5C, offset: 0x11B5C, size: 0x8, addend: 0x0, symName: __ZNSt3__112basic_stringIcNS_11char_traitsIcEENS_9allocatorIcEEEC1B7v160006Emc, symObjAddr: 0x4CAC, symBinAddr: 0x100007170, symSize: 0x3C }
  - { offsetInCU: 0x11BA3, offset: 0x11BA3, size: 0x8, addend: 0x0, symName: __ZNKSt3__112basic_stringIcNS_11char_traitsIcEENS_9allocatorIcEEE4dataB7v160006Ev, symObjAddr: 0x4CE8, symBinAddr: 0x1000071AC, symSize: 0x28 }
  - { offsetInCU: 0x11BC8, offset: 0x11BC8, size: 0x8, addend: 0x0, symName: __ZNSt3__18ios_base5widthB7v160006El, symObjAddr: 0x4D10, symBinAddr: 0x1000071D4, symSize: 0x2C }
  - { offsetInCU: 0x11C0D, offset: 0x11C0D, size: 0x8, addend: 0x0, symName: __ZNSt3__112basic_stringIcNS_11char_traitsIcEENS_9allocatorIcEEEC2B7v160006Emc, symObjAddr: 0x4D3C, symBinAddr: 0x100007200, symSize: 0x54 }
  - { offsetInCU: 0x11C54, offset: 0x11C54, size: 0x8, addend: 0x0, symName: __ZNSt3__117__compressed_pairINS_12basic_stringIcNS_11char_traitsIcEENS_9allocatorIcEEE5__repES5_EC1B7v160006INS_18__default_init_tagESA_EEOT_OT0_, symObjAddr: 0x4D90, symBinAddr: 0x100007254, symSize: 0x3C }
  - { offsetInCU: 0x11CAB, offset: 0x11CAB, size: 0x8, addend: 0x0, symName: __ZNSt3__117__compressed_pairINS_12basic_stringIcNS_11char_traitsIcEENS_9allocatorIcEEE5__repES5_EC2B7v160006INS_18__default_init_tagESA_EEOT_OT0_, symObjAddr: 0x4DDC, symBinAddr: 0x1000072A0, symSize: 0x3C }
  - { offsetInCU: 0x11D02, offset: 0x11D02, size: 0x8, addend: 0x0, symName: __ZNSt3__122__compressed_pair_elemINS_12basic_stringIcNS_11char_traitsIcEENS_9allocatorIcEEE5__repELi0ELb0EEC2B7v160006ENS_18__default_init_tagE, symObjAddr: 0x4E18, symBinAddr: 0x1000072DC, symSize: 0x14 }
  - { offsetInCU: 0x11D36, offset: 0x11D36, size: 0x8, addend: 0x0, symName: __ZNSt3__122__compressed_pair_elemINS_9allocatorIcEELi1ELb1EEC2B7v160006ENS_18__default_init_tagE, symObjAddr: 0x4E2C, symBinAddr: 0x1000072F0, symSize: 0x2C }
  - { offsetInCU: 0x11D6A, offset: 0x11D6A, size: 0x8, addend: 0x0, symName: __ZNSt3__19allocatorIcEC2B7v160006Ev, symObjAddr: 0x4E58, symBinAddr: 0x10000731C, symSize: 0x2C }
  - { offsetInCU: 0x11D93, offset: 0x11D93, size: 0x8, addend: 0x0, symName: __ZNSt3__116__non_trivial_ifILb1ENS_9allocatorIcEEEC2B7v160006Ev, symObjAddr: 0x4E84, symBinAddr: 0x100007348, symSize: 0x14 }
  - { offsetInCU: 0x11DBC, offset: 0x11DBC, size: 0x8, addend: 0x0, symName: __ZNKSt3__112basic_stringIcNS_11char_traitsIcEENS_9allocatorIcEEE13__get_pointerB7v160006Ev, symObjAddr: 0x4EAC, symBinAddr: 0x100007370, symSize: 0x54 }
  - { offsetInCU: 0x11DE1, offset: 0x11DE1, size: 0x8, addend: 0x0, symName: __ZNKSt3__112basic_stringIcNS_11char_traitsIcEENS_9allocatorIcEEE9__is_longB7v160006Ev, symObjAddr: 0x4F00, symBinAddr: 0x1000073C4, symSize: 0x38 }
  - { offsetInCU: 0x11E06, offset: 0x11E06, size: 0x8, addend: 0x0, symName: __ZNKSt3__112basic_stringIcNS_11char_traitsIcEENS_9allocatorIcEEE18__get_long_pointerB7v160006Ev, symObjAddr: 0x4F38, symBinAddr: 0x1000073FC, symSize: 0x28 }
  - { offsetInCU: 0x11E2B, offset: 0x11E2B, size: 0x8, addend: 0x0, symName: __ZNKSt3__112basic_stringIcNS_11char_traitsIcEENS_9allocatorIcEEE19__get_short_pointerB7v160006Ev, symObjAddr: 0x4F60, symBinAddr: 0x100007424, symSize: 0x28 }
  - { offsetInCU: 0x11E50, offset: 0x11E50, size: 0x8, addend: 0x0, symName: __ZNKSt3__117__compressed_pairINS_12basic_stringIcNS_11char_traitsIcEENS_9allocatorIcEEE5__repES5_E5firstB7v160006Ev, symObjAddr: 0x4F88, symBinAddr: 0x10000744C, symSize: 0x24 }
  - { offsetInCU: 0x11E75, offset: 0x11E75, size: 0x8, addend: 0x0, symName: __ZNKSt3__122__compressed_pair_elemINS_12basic_stringIcNS_11char_traitsIcEENS_9allocatorIcEEE5__repELi0ELb0EE5__getB7v160006Ev, symObjAddr: 0x4FAC, symBinAddr: 0x100007470, symSize: 0x14 }
  - { offsetInCU: 0x11E9A, offset: 0x11E9A, size: 0x8, addend: 0x0, symName: __ZNSt3__114pointer_traitsIPKcE10pointer_toB7v160006ERS1_, symObjAddr: 0x4FC0, symBinAddr: 0x100007484, symSize: 0x14 }
  - { offsetInCU: 0x11EBD, offset: 0x11EBD, size: 0x8, addend: 0x0, symName: __ZNSt3__119ostreambuf_iteratorIcNS_11char_traitsIcEEEC2B7v160006ERNS_13basic_ostreamIcS2_EE, symObjAddr: 0x4FD4, symBinAddr: 0x100007498, symSize: 0x54 }
  - { offsetInCU: 0x11EF3, offset: 0x11EF3, size: 0x8, addend: 0x0, symName: __ZNKSt3__19basic_iosIcNS_11char_traitsIcEEE5rdbufB7v160006Ev, symObjAddr: 0x5028, symBinAddr: 0x1000074EC, symSize: 0x24 }
  - { offsetInCU: 0x11F1A, offset: 0x11F1A, size: 0x8, addend: 0x0, symName: __ZNKSt3__18ios_base5rdbufB7v160006Ev, symObjAddr: 0x504C, symBinAddr: 0x100007510, symSize: 0x18 }
  - { offsetInCU: 0x11F3F, offset: 0x11F3F, size: 0x8, addend: 0x0, symName: __ZNSt3__111char_traitsIcE11eq_int_typeEii, symObjAddr: 0x5064, symBinAddr: 0x100007528, symSize: 0x28 }
  - { offsetInCU: 0x11F70, offset: 0x11F70, size: 0x8, addend: 0x0, symName: __ZNSt3__111char_traitsIcE3eofEv, symObjAddr: 0x508C, symBinAddr: 0x100007550, symSize: 0x8 }
  - { offsetInCU: 0x11F83, offset: 0x11F83, size: 0x8, addend: 0x0, symName: __ZNKSt3__19basic_iosIcNS_11char_traitsIcEEE5widenB7v160006Ec, symObjAddr: 0x5094, symBinAddr: 0x100007558, symSize: 0x84 }
  - { offsetInCU: 0x11FF0, offset: 0x11FF0, size: 0x8, addend: 0x0, symName: __ZNKSt3__15ctypeIcE5widenB7v160006Ec, symObjAddr: 0x5144, symBinAddr: 0x100007608, symSize: 0x38 }
  - { offsetInCU: 0x12023, offset: 0x12023, size: 0x8, addend: 0x0, symName: __ZNSt3__18ios_base8setstateB7v160006Ej, symObjAddr: 0x517C, symBinAddr: 0x100007640, symSize: 0x34 }
  - { offsetInCU: 0x12059, offset: 0x12059, size: 0x8, addend: 0x0, symName: __ZN2KVIiE7get_keyEv, symObjAddr: 0x51D4, symBinAddr: 0x100007698, symSize: 0x18 }
...
